
========================================================================

** ELF Header Information

    File Name: .\obj\UART.axf

    Machine class: ELFCLASS32 (32-bit)
    Data encoding: ELFDATA2LSB (Little endian)
    Header version: EV_CURRENT (Current version)
    Operating System ABI: none
    ABI Version: 0
    File Type: ET_EXEC (Executable) (2)
    Machine: EM_ARM (ARM)

    Image Entry point: 0x00000151
    Flags: EF_ARM_HASENTRY (0x05000002)

    ARM ELF revision: 5 (ABI version 2)

    Built with
    ARM C/C++ Compiler, 5.03 [Build 76]
    ARM Assembler, 5.03 [Build 76]
    ARM Linker, 5.03 [Build 76] 

    Header size: 52 bytes (0x34)
    Program header entry size: 32 bytes (0x20)
    Section header entry size: 40 bytes (0x28)

    Program header entries: 1
    Section header entries: 16

    Program header offset: 246112 (0x0003c160)
    Section header offset: 246144 (0x0003c180)

    Section header string table index: 15

========================================================================

** Program header #0 (PT_LOAD) [PF_X + PF_W + PF_R + PF_ARM_ENTRY]
    Size : 12956 bytes (10896 bytes in file)
    Virtual address: 0x00000000 (Alignment 8)


========================================================================

** Section #1 'ER_RO' (SHT_PROGBITS) [SHF_ALLOC + SHF_EXECINSTR]
    Size   : 10836 bytes (alignment 4)
    Address: 0x00000000

    $d.realdata
    RESET
    __Vectors
        0x00000000:    20000848    H..     DCD    536873032
        0x00000004:    00000151    Q...    DCD    337
        0x00000008:    00000171    q...    DCD    369
        0x0000000c:    00000173    s...    DCD    371
        0x00000010:    00000000    ....    DCD    0
        0x00000014:    00000000    ....    DCD    0
        0x00000018:    00000000    ....    DCD    0
        0x0000001c:    00000000    ....    DCD    0
        0x00000020:    00000000    ....    DCD    0
        0x00000024:    00000000    ....    DCD    0
        0x00000028:    00000000    ....    DCD    0
        0x0000002c:    00000175    u...    DCD    373
        0x00000030:    00000000    ....    DCD    0
        0x00000034:    00000000    ....    DCD    0
        0x00000038:    00000177    w...    DCD    375
        0x0000003c:    00000179    y...    DCD    377
        0x00000040:    0000017b    {...    DCD    379
        0x00000044:    0000017b    {...    DCD    379
        0x00000048:    0000017b    {...    DCD    379
        0x0000004c:    0000017b    {...    DCD    379
        0x00000050:    0000017b    {...    DCD    379
        0x00000054:    0000017b    {...    DCD    379
        0x00000058:    0000017b    {...    DCD    379
        0x0000005c:    0000017b    {...    DCD    379
        0x00000060:    0000017b    {...    DCD    379
        0x00000064:    0000017b    {...    DCD    379
        0x00000068:    0000017b    {...    DCD    379
        0x0000006c:    0000017b    {...    DCD    379
        0x00000070:    00000ce3    ....    DCD    3299
        0x00000074:    00000ce5    ....    DCD    3301
        0x00000078:    0000017b    {...    DCD    379
        0x0000007c:    0000017b    {...    DCD    379
        0x00000080:    0000017b    {...    DCD    379
        0x00000084:    0000017b    {...    DCD    379
        0x00000088:    0000017b    {...    DCD    379
        0x0000008c:    0000017b    {...    DCD    379
        0x00000090:    0000017b    {...    DCD    379
        0x00000094:    0000017b    {...    DCD    379
        0x00000098:    0000017b    {...    DCD    379
        0x0000009c:    0000017b    {...    DCD    379
        0x000000a0:    0000017b    {...    DCD    379
        0x000000a4:    0000017b    {...    DCD    379
        0x000000a8:    0000017b    {...    DCD    379
        0x000000ac:    0000017b    {...    DCD    379
        0x000000b0:    0000017b    {...    DCD    379
        0x000000b4:    0000017b    {...    DCD    379
        0x000000b8:    0000017b    {...    DCD    379
        0x000000bc:    0000017b    {...    DCD    379
    $t
    .ARM.Collect$$$$00000000
    .ARM.Collect$$$$00000001
    __main
    _main_stk
        0x000000c0:    4803        .H      LDR      r0,__lit__00000000 ; [0xd0] = 0x20000848
        0x000000c2:    4685        .F      MOV      sp,r0
    .ARM.Collect$$$$00000004
    _main_scatterload
        0x000000c4:    f002f9ee    ....    BL       __scatterload ; 0x24a4
    .ARM.Collect$$$$00000008
    .ARM.Collect$$$$0000000A
    .ARM.Collect$$$$0000000B
    __main_after_scatterload
    _main_clock
    _main_cpp_init
    _main_init
        0x000000c8:    4800        .H      LDR      r0,[pc,#0] ; [0xcc] = 0xbed
        0x000000ca:    4700        .G      BX       r0
    $d
        0x000000cc:    00000bed    ....    DCD    3053
    .ARM.Collect$$$$00002712
    __lit__00000000
    .ARM.Collect$$$$0000000D
    .ARM.Collect$$$$0000000F
    __rt_final_cpp
    __rt_final_exit
        0x000000d0:    20000848    H..     DCD    536873032
    $t
    .text
    SystemInit
        0x000000d4:    b570        p.      PUSH     {r4-r6,lr}
        0x000000d6:    4817        .H      LDR      r0,[pc,#92] ; [0x134] = 0x20000000
        0x000000d8:    2200        ."      MOVS     r2,#0
        0x000000da:    4917        .I      LDR      r1,[pc,#92] ; [0x138] = 0x50000200
        0x000000dc:    6082        .`      STR      r2,[r0,#8]
        0x000000de:    6908        .i      LDR      r0,[r1,#0x10]
        0x000000e0:    0740        @.      LSLS     r0,r0,#29
        0x000000e2:    0f40        @.      LSRS     r0,r0,#29
        0x000000e4:    d005        ..      BEQ      0xf2 ; SystemInit + 30
        0x000000e6:    2807        .(      CMP      r0,#7
        0x000000e8:    d123        #.      BNE      0x132 ; SystemInit + 94
        0x000000ea:    4814        .H      LDR      r0,[pc,#80] ; [0x13c] = 0x85639
        0x000000ec:    6208        .b      STR      r0,[r1,#0x20]
        0x000000ee:    4814        .H      LDR      r0,[pc,#80] ; [0x140] = 0x5666
        0x000000f0:    e00f        ..      B        0x112 ; SystemInit + 62
        0x000000f2:    4814        .H      LDR      r0,[pc,#80] ; [0x144] = 0x4217
        0x000000f4:    6208        .b      STR      r0,[r1,#0x20]
        0x000000f6:    4814        .H      LDR      r0,[pc,#80] ; [0x148] = 0x2ee0
        0x000000f8:    e003        ..      B        0x102 ; SystemInit + 46
        0x000000fa:    4603        .F      MOV      r3,r0
        0x000000fc:    1e40        @.      SUBS     r0,r0,#1
        0x000000fe:    2b00        .+      CMP      r3,#0
        0x00000100:    dd0a        ..      BLE      0x118 ; SystemInit + 68
        0x00000102:    68cb        .h      LDR      r3,[r1,#0xc]
        0x00000104:    075b        [.      LSLS     r3,r3,#29
        0x00000106:    d5f8        ..      BPL      0xfa ; SystemInit + 38
        0x00000108:    e006        ..      B        0x118 ; SystemInit + 68
        0x0000010a:    4603        .F      MOV      r3,r0
        0x0000010c:    1e40        @.      SUBS     r0,r0,#1
        0x0000010e:    2b00        .+      CMP      r3,#0
        0x00000110:    dd02        ..      BLE      0x118 ; SystemInit + 68
        0x00000112:    68cb        .h      LDR      r3,[r1,#0xc]
        0x00000114:    075b        [.      LSLS     r3,r3,#29
        0x00000116:    d5f8        ..      BPL      0x10a ; SystemInit + 54
        0x00000118:    2359        Y#      MOVS     r3,#0x59
        0x0000011a:    480c        .H      LDR      r0,[pc,#48] ; [0x14c] = 0x50000100
        0x0000011c:    2416        .$      MOVS     r4,#0x16
        0x0000011e:    2588        .%      MOVS     r5,#0x88
        0x00000120:    6003        .`      STR      r3,[r0,#0]
        0x00000122:    6004        .`      STR      r4,[r0,#0]
        0x00000124:    6005        .`      STR      r5,[r0,#0]
        0x00000126:    6806        .h      LDR      r6,[r0,#0]
        0x00000128:    2e00        ..      CMP      r6,#0
        0x0000012a:    d0f9        ..      BEQ      0x120 ; SystemInit + 76
        0x0000012c:    2302        .#      MOVS     r3,#2
        0x0000012e:    610b        .a      STR      r3,[r1,#0x10]
        0x00000130:    6002        .`      STR      r2,[r0,#0]
        0x00000132:    bd70        p.      POP      {r4-r6,pc}
    $d
        0x00000134:    20000000    ...     DCD    536870912
        0x00000138:    50000200    ...P    DCD    1342177792
        0x0000013c:    00085639    9V..    DCD    546361
        0x00000140:    00005666    fV..    DCD    22118
        0x00000144:    00004217    .B..    DCD    16919
        0x00000148:    00002ee0    ....    DCD    12000
        0x0000014c:    50000100    ...P    DCD    1342177536
    $t
    .text
    Reset_Handler
        0x00000150:    480a        .H      LDR      r0,[pc,#40] ; [0x17c] = 0x50000100
        0x00000152:    490b        .I      LDR      r1,[pc,#44] ; [0x180] = 0x59
        0x00000154:    6001        .`      STR      r1,[r0,#0]
        0x00000156:    490b        .I      LDR      r1,[pc,#44] ; [0x184] = 0x16
        0x00000158:    6001        .`      STR      r1,[r0,#0]
        0x0000015a:    490b        .I      LDR      r1,[pc,#44] ; [0x188] = 0x88
        0x0000015c:    6001        .`      STR      r1,[r0,#0]
        0x0000015e:    4a0b        .J      LDR      r2,[pc,#44] ; [0x18c] = 0x50000024
        0x00000160:    490b        .I      LDR      r1,[pc,#44] ; [0x190] = 0x5aa5
        0x00000162:    6011        .`      STR      r1,[r2,#0]
        0x00000164:    2100        .!      MOVS     r1,#0
        0x00000166:    6001        .`      STR      r1,[r0,#0]
        0x00000168:    480a        .H      LDR      r0,[pc,#40] ; [0x194] = 0xd5
        0x0000016a:    4780        .G      BLX      r0
        0x0000016c:    480a        .H      LDR      r0,[pc,#40] ; [0x198] = 0xc1
        0x0000016e:    4700        .G      BX       r0
    NMI_Handler
        0x00000170:    e7fe        ..      B        NMI_Handler ; 0x170
    HardFault_Handler
        0x00000172:    e7fe        ..      B        HardFault_Handler ; 0x172
    SVC_Handler
        0x00000174:    e7fe        ..      B        SVC_Handler ; 0x174
    PendSV_Handler
        0x00000176:    e7fe        ..      B        PendSV_Handler ; 0x176
    SysTick_Handler
        0x00000178:    e7fe        ..      B        SysTick_Handler ; 0x178
    Default_Handler
    ACMP_IRQHandler
    ADC_IRQHandler
    BOD_IRQHandler
    CAN0_IRQHandler
    CAN1_IRQHandler
    EINT0_IRQHandler
    EINT1_IRQHandler
    GPAB_IRQHandler
    GPCDEF_IRQHandler
    I2C0_IRQHandler
    I2C1_IRQHandler
    I2S_IRQHandler
    PDMA_IRQHandler
    PS2_IRQHandler
    PWMA_IRQHandler
    PWMB_IRQHandler
    PWRWU_IRQHandler
    RTC_IRQHandler
    SC012_IRQHandler
    SPI0_IRQHandler
    SPI1_IRQHandler
    SPI2_IRQHandler
    SPI3_IRQHandler
    TMR0_IRQHandler
    TMR1_IRQHandler
    TMR2_IRQHandler
    TMR3_IRQHandler
    USBD_IRQHandler
    WDT_IRQHandler
        0x0000017a:    e7fe        ..      B        Default_Handler ; 0x17a
    $d
        0x0000017c:    50000100    ...P    DCD    1342177536
        0x00000180:    00000059    Y...    DCD    89
        0x00000184:    00000016    ....    DCD    22
        0x00000188:    00000088    ....    DCD    136
        0x0000018c:    50000024    $..P    DCD    1342177316
        0x00000190:    00005aa5    .Z..    DCD    23205
        0x00000194:    000000d5    ....    DCD    213
        0x00000198:    000000c1    ....    DCD    193
    $t
    .text
    TestItem
        0x0000019c:    b510        ..      PUSH     {r4,lr}
        0x0000019e:    a040        @.      ADR      r0,{pc}+0x102 ; 0x2a0
        0x000001a0:    f002f9ca    ....    BL       __0printf$8 ; 0x2538
        0x000001a4:    a04e        N.      ADR      r0,{pc}+0x13c ; 0x2e0
        0x000001a6:    f002f9c7    ....    BL       __0printf$8 ; 0x2538
        0x000001aa:    a03d        =.      ADR      r0,{pc}+0xf6 ; 0x2a0
        0x000001ac:    f002f9c4    ....    BL       __0printf$8 ; 0x2538
        0x000001b0:    a05b        [.      ADR      r0,{pc}+0x170 ; 0x320
        0x000001b2:    f002f9c1    ....    BL       __0printf$8 ; 0x2538
        0x000001b6:    a06a        j.      ADR      r0,{pc}+0x1aa ; 0x360
        0x000001b8:    f002f9be    ....    BL       __0printf$8 ; 0x2538
        0x000001bc:    a078        x.      ADR      r0,{pc}+0x1e4 ; 0x3a0
        0x000001be:    f002f9bb    ....    BL       __0printf$8 ; 0x2538
        0x000001c2:    a087        ..      ADR      r0,{pc}+0x21e ; 0x3e0
        0x000001c4:    f002f9b8    ....    BL       __0printf$8 ; 0x2538
        0x000001c8:    a095        ..      ADR      r0,{pc}+0x258 ; 0x420
        0x000001ca:    f002f9b5    ....    BL       __0printf$8 ; 0x2538
        0x000001ce:    a0a4        ..      ADR      r0,{pc}+0x292 ; 0x460
        0x000001d0:    f002f9b2    ....    BL       __0printf$8 ; 0x2538
        0x000001d4:    a032        2.      ADR      r0,{pc}+0xcc ; 0x2a0
        0x000001d6:    f002f9af    ....    BL       __0printf$8 ; 0x2538
        0x000001da:    a0b1        ..      ADR      r0,{pc}+0x2c6 ; 0x4a0
        0x000001dc:    f002f9ac    ....    BL       __0printf$8 ; 0x2538
        0x000001e0:    a02f        /.      ADR      r0,{pc}+0xc0 ; 0x2a0
        0x000001e2:    f002f9a9    ....    BL       __0printf$8 ; 0x2538
        0x000001e6:    a0be        ..      ADR      r0,{pc}+0x2fa ; 0x4e0
        0x000001e8:    f002f9a6    ....    BL       __0printf$8 ; 0x2538
        0x000001ec:    bd10        ..      POP      {r4,pc}
    SYS_Init
        0x000001ee:    b570        p.      PUSH     {r4-r6,lr}
        0x000001f0:    2059        Y       MOVS     r0,#0x59
        0x000001f2:    4cc2        .L      LDR      r4,[pc,#776] ; [0x4fc] = 0x50000100
        0x000001f4:    2116        .!      MOVS     r1,#0x16
        0x000001f6:    2288        ."      MOVS     r2,#0x88
        0x000001f8:    6020         `      STR      r0,[r4,#0]
        0x000001fa:    6021        !`      STR      r1,[r4,#0]
        0x000001fc:    6022        "`      STR      r2,[r4,#0]
        0x000001fe:    6823        #h      LDR      r3,[r4,#0]
        0x00000200:    2b00        .+      CMP      r3,#0
        0x00000202:    d0f9        ..      BEQ      0x1f8 ; SYS_Init + 10
        0x00000204:    4dbe        .M      LDR      r5,[pc,#760] ; [0x500] = 0x50000200
        0x00000206:    6828        (h      LDR      r0,[r5,#0]
        0x00000208:    2101        .!      MOVS     r1,#1
        0x0000020a:    4308        .C      ORRS     r0,r0,r1
        0x0000020c:    6028        (`      STR      r0,[r5,#0]
        0x0000020e:    4608        .F      MOV      r0,r1
        0x00000210:    f000fd6c    ..l.    BL       SYS_WaitingForClockReady ; 0xcec
        0x00000214:    2600        .&      MOVS     r6,#0
        0x00000216:    612e        .a      STR      r6,[r5,#0x10]
        0x00000218:    6a28        (j      LDR      r0,[r5,#0x20]
        0x0000021a:    01e9        ..      LSLS     r1,r5,#7
        0x0000021c:    4308        .C      ORRS     r0,r0,r1
        0x0000021e:    6228        (b      STR      r0,[r5,#0x20]
        0x00000220:    48b8        .H      LDR      r0,[pc,#736] ; [0x504] = 0x4217
        0x00000222:    6228        (b      STR      r0,[r5,#0x20]
        0x00000224:    2004        .       MOVS     r0,#4
        0x00000226:    f000fd61    ..a.    BL       SYS_WaitingForClockReady ; 0xcec
        0x0000022a:    2002        .       MOVS     r0,#2
        0x0000022c:    6128        (a      STR      r0,[r5,#0x10]
        0x0000022e:    2003        .       MOVS     r0,#3
        0x00000230:    0400        ..      LSLS     r0,r0,#16
        0x00000232:    60a8        .`      STR      r0,[r5,#8]
        0x00000234:    616e        na      STR      r6,[r5,#0x14]
        0x00000236:    49b5        .I      LDR      r1,[pc,#724] ; [0x50c] = 0x20000008
        0x00000238:    48b3        .H      LDR      r0,[pc,#716] ; [0x508] = 0x2faf080
        0x0000023a:    6008        .`      STR      r0,[r1,#0]
        0x0000023c:    49b4        .I      LDR      r1,[pc,#720] ; [0x510] = 0x20000000
        0x0000023e:    6008        .`      STR      r0,[r1,#0]
        0x00000240:    49b4        .I      LDR      r1,[pc,#720] ; [0x514] = 0x20000004
        0x00000242:    2032        2       MOVS     r0,#0x32
        0x00000244:    6008        .`      STR      r0,[r1,#0]
        0x00000246:    20f3        .       MOVS     r0,#0xf3
        0x00000248:    2105        .!      MOVS     r1,#5
        0x0000024a:    0709        ..      LSLS     r1,r1,#28
        0x0000024c:    6348        Hc      STR      r0,[r1,#0x34]
        0x0000024e:    6026        &`      STR      r6,[r4,#0]
        0x00000250:    bd70        p.      POP      {r4-r6,pc}
    UART0_Init
        0x00000252:    48b2        .H      LDR      r0,[pc,#712] ; [0x51c] = 0x40050000
        0x00000254:    49b0        .I      LDR      r1,[pc,#704] ; [0x518] = 0x30000066
        0x00000256:    6241        Ab      STR      r1,[r0,#0x24]
        0x00000258:    2103        .!      MOVS     r1,#3
        0x0000025a:    60c1        .`      STR      r1,[r0,#0xc]
        0x0000025c:    4770        pG      BX       lr
    UART1_Init
        0x0000025e:    48b0        .H      LDR      r0,[pc,#704] ; [0x520] = 0x40150000
        0x00000260:    49ad        .I      LDR      r1,[pc,#692] ; [0x518] = 0x30000066
        0x00000262:    6241        Ab      STR      r1,[r0,#0x24]
        0x00000264:    2103        .!      MOVS     r1,#3
        0x00000266:    60c1        .`      STR      r1,[r0,#0xc]
        0x00000268:    4770        pG      BX       lr
    AutoFlow_FunctionTest
        0x0000026a:    b5f8        ..      PUSH     {r3-r7,lr}
        0x0000026c:    a00c        ..      ADR      r0,{pc}+0x34 ; 0x2a0
        0x0000026e:    f002f963    ..c.    BL       __0printf$8 ; 0x2538
        0x00000272:    a0ac        ..      ADR      r0,{pc}+0x2b2 ; 0x524
        0x00000274:    f002f960    ..`.    BL       __0printf$8 ; 0x2538
        0x00000278:    a009        ..      ADR      r0,{pc}+0x28 ; 0x2a0
        0x0000027a:    f002f95d    ..].    BL       __0printf$8 ; 0x2538
        0x0000027e:    a0b9        ..      ADR      r0,{pc}+0x2e6 ; 0x564
        0x00000280:    f002f95a    ..Z.    BL       __0printf$8 ; 0x2538
        0x00000284:    a0c7        ..      ADR      r0,{pc}+0x320 ; 0x5a4
        0x00000286:    f002f957    ..W.    BL       __0printf$8 ; 0x2538
        0x0000028a:    a0d6        ..      ADR      r0,{pc}+0x35a ; 0x5e4
        0x0000028c:    f002f954    ..T.    BL       __0printf$8 ; 0x2538
        0x00000290:    a0e4        ..      ADR      r0,{pc}+0x394 ; 0x624
        0x00000292:    f002f951    ..Q.    BL       __0printf$8 ; 0x2538
        0x00000296:    a0f3        ..      ADR      r0,{pc}+0x3ce ; 0x664
        0x00000298:    f002f94e    ..N.    BL       __0printf$8 ; 0x2538
        0x0000029c:    e202        ..      B        0x6a4 ; AutoFlow_FunctionTest + 1082
    $d
        0x0000029e:    0000        ..      DCW    0
        0x000002a0:    2d2d2d2b    +---    DCD    757935403
        0x000002a4:    2d2d2d2d    ----    DCD    757935405
        0x000002a8:    2d2d2d2d    ----    DCD    757935405
        0x000002ac:    2d2d2d2d    ----    DCD    757935405
        0x000002b0:    2d2d2d2d    ----    DCD    757935405
        0x000002b4:    2d2d2d2d    ----    DCD    757935405
        0x000002b8:    2d2d2d2d    ----    DCD    757935405
        0x000002bc:    2d2d2d2d    ----    DCD    757935405
        0x000002c0:    2d2d2d2d    ----    DCD    757935405
        0x000002c4:    2d2d2d2d    ----    DCD    757935405
        0x000002c8:    2d2d2d2d    ----    DCD    757935405
        0x000002cc:    2d2d2d2d    ----    DCD    757935405
        0x000002d0:    2d2d2d2d    ----    DCD    757935405
        0x000002d4:    2d2d2d2d    ----    DCD    757935405
        0x000002d8:    2d2d2d2d    ----    DCD    757935405
        0x000002dc:    00000a2b    +...    DCD    2603
        0x000002e0:    2020207c    |       DCD    538976380
        0x000002e4:    20202020            DCD    538976288
        0x000002e8:    20202020            DCD    538976288
        0x000002ec:    20202020            DCD    538976288
        0x000002f0:    54524155    UART    DCD    1414676821
        0x000002f4:    6d615320     Sam    DCD    1835094816
        0x000002f8:    20656c70    ple     DCD    543517808
        0x000002fc:    676f7250    Prog    DCD    1735357008
        0x00000300:    206d6172    ram     DCD    544039282
        0x00000304:    20202020            DCD    538976288
        0x00000308:    20202020            DCD    538976288
        0x0000030c:    20202020            DCD    538976288
        0x00000310:    20202020            DCD    538976288
        0x00000314:    20202020            DCD    538976288
        0x00000318:    20202020            DCD    538976288
        0x0000031c:    00000a7c    |...    DCD    2684
        0x00000320:    4155207c    | UA    DCD    1096097916
        0x00000324:    66205452    RT f    DCD    1713394770
        0x00000328:    74636e75    unct    DCD    1952673397
        0x0000032c:    206e6f69    ion     DCD    544108393
        0x00000330:    74736574    test    DCD    1953719668
        0x00000334:    20202020            DCD    538976288
        0x00000338:    20202020            DCD    538976288
        0x0000033c:    20202020            DCD    538976288
        0x00000340:    20202020            DCD    538976288
        0x00000344:    20202020            DCD    538976288
        0x00000348:    20202020            DCD    538976288
        0x0000034c:    20202020            DCD    538976288
        0x00000350:    20202020            DCD    538976288
        0x00000354:    202d2020      -     DCD    539828256
        0x00000358:    205d315b    [1]     DCD    542978395
        0x0000035c:    00000a7c    |...    DCD    2684
        0x00000360:    7249207c    | Ir    DCD    1917395068
        0x00000364:    66204144    DA f    DCD    1713389892
        0x00000368:    69746e75    unti    DCD    1769238133
        0x0000036c:    74206e6f    on t    DCD    1948282479
        0x00000370:    20747365    est     DCD    544502629
        0x00000374:    20202020            DCD    538976288
        0x00000378:    20202020            DCD    538976288
        0x0000037c:    20202020            DCD    538976288
        0x00000380:    20202020            DCD    538976288
        0x00000384:    20202020            DCD    538976288
        0x00000388:    20202020            DCD    538976288
        0x0000038c:    20202020            DCD    538976288
        0x00000390:    20202020            DCD    538976288
        0x00000394:    202d2020      -     DCD    539828256
        0x00000398:    205d325b    [2]     DCD    542978651
        0x0000039c:    00000a7c    |...    DCD    2684
        0x000003a0:    5352207c    | RS    DCD    1397891196
        0x000003a4:    20353834    485     DCD    540358708
        0x000003a8:    746e7566    funt    DCD    1953396070
        0x000003ac:    206e6f69    ion     DCD    544108393
        0x000003b0:    74736574    test    DCD    1953719668
        0x000003b4:    20202020            DCD    538976288
        0x000003b8:    20202020            DCD    538976288
        0x000003bc:    20202020            DCD    538976288
        0x000003c0:    20202020            DCD    538976288
        0x000003c4:    20202020            DCD    538976288
        0x000003c8:    20202020            DCD    538976288
        0x000003cc:    20202020            DCD    538976288
        0x000003d0:    20202020            DCD    538976288
        0x000003d4:    202d2020      -     DCD    539828256
        0x000003d8:    205d335b    [3]     DCD    542978907
        0x000003dc:    00000a7c    |...    DCD    2684
        0x000003e0:    494c207c    | LI    DCD    1229725820
        0x000003e4:    614d204e    N Ma    DCD    1632444494
        0x000003e8:    72657473    ster    DCD    1919251571
        0x000003ec:    6e756620     fun    DCD    1853187616
        0x000003f0:    6e6f6974    tion    DCD    1852795252
        0x000003f4:    73657420     tes    DCD    1936028704
        0x000003f8:    20202074    t       DCD    538976372
        0x000003fc:    20202020            DCD    538976288
        0x00000400:    20202020            DCD    538976288
        0x00000404:    20202020            DCD    538976288
        0x00000408:    20202020            DCD    538976288
        0x0000040c:    20202020            DCD    538976288
        0x00000410:    20202020            DCD    538976288
        0x00000414:    202d2020      -     DCD    539828256
        0x00000418:    205d345b    [4]     DCD    542979163
        0x0000041c:    00000a7c    |...    DCD    2684
        0x00000420:    7541207c    | Au    DCD    1967202428
        0x00000424:    462d6f74    to-F    DCD    1177382772
        0x00000428:    20776f6c    low     DCD    544698220
        0x0000042c:    746e7566    funt    DCD    1953396070
        0x00000430:    206e6f69    ion     DCD    544108393
        0x00000434:    74736574    test    DCD    1953719668
        0x00000438:    20202020            DCD    538976288
        0x0000043c:    20202020            DCD    538976288
        0x00000440:    20202020            DCD    538976288
        0x00000444:    20202020            DCD    538976288
        0x00000448:    20202020            DCD    538976288
        0x0000044c:    20202020            DCD    538976288
        0x00000450:    20202020            DCD    538976288
        0x00000454:    202d2020      -     DCD    539828256
        0x00000458:    205d355b    [5]     DCD    542979419
        0x0000045c:    00000a7c    |...    DCD    2684
        0x00000460:    494c207c    | LI    DCD    1229725820
        0x00000464:    614d204e    N Ma    DCD    1632444494
        0x00000468:    72657473    ster    DCD    1919251571
        0x0000046c:    6e756620     fun    DCD    1853187616
        0x00000470:    6e6f6974    tion    DCD    1852795252
        0x00000474:    73657420     tes    DCD    1936028704
        0x00000478:    73752074    t us    DCD    1937055860
        0x0000047c:    20676e69    ing     DCD    543649385
        0x00000480:    4c5f4155    UA_L    DCD    1281311061
        0x00000484:    435f4e49    IN_C    DCD    1130319433
        0x00000488:    72204c54    TL r    DCD    1914719316
        0x0000048c:    73696765    egis    DCD    1936287589
        0x00000490:    20726574    ter     DCD    544367988
        0x00000494:    202d2020      -     DCD    539828256
        0x00000498:    205d365b    [6]     DCD    542979675
        0x0000049c:    00000a7c    |...    DCD    2684
        0x000004a0:    7551207c    | Qu    DCD    1968251004
        0x000004a4:    20207469    it      DCD    538997865
        0x000004a8:    20202020            DCD    538976288
        0x000004ac:    20202020            DCD    538976288
        0x000004b0:    20202020            DCD    538976288
        0x000004b4:    20202020            DCD    538976288
        0x000004b8:    20202020            DCD    538976288
        0x000004bc:    20202020            DCD    538976288
        0x000004c0:    20202020            DCD    538976288
        0x000004c4:    20202020            DCD    538976288
        0x000004c8:    20202020            DCD    538976288
        0x000004cc:    20202020            DCD    538976288
        0x000004d0:    20202020            DCD    538976288
        0x000004d4:    455b202d    - [E    DCD    1163599917
        0x000004d8:    205d4353    SC]     DCD    542982995
        0x000004dc:    00000a7c    |...    DCD    2684
        0x000004e0:    61656c50    Plea    DCD    1634036816
        0x000004e4:    53206573    se S    DCD    1394632051
        0x000004e8:    63656c65    elec    DCD    1667591269
        0x000004ec:    656b2074    t ke    DCD    1701519476
        0x000004f0:    31282079    y (1    DCD    824713337
        0x000004f4:    3a29367e    ~6):    DCD    975779454
        0x000004f8:    00000020     ...    DCD    32
        0x000004fc:    50000100    ...P    DCD    1342177536
        0x00000500:    50000200    ...P    DCD    1342177792
        0x00000504:    00004217    .B..    DCD    16919
        0x00000508:    02faf080    ....    DCD    50000000
        0x0000050c:    20000008    ...     DCD    536870920
        0x00000510:    20000000    ...     DCD    536870912
        0x00000514:    20000004    ...     DCD    536870916
        0x00000518:    30000066    f..0    DCD    805306470
        0x0000051c:    40050000    ...@    DCD    1074069504
        0x00000520:    40150000    ...@    DCD    1075118080
        0x00000524:    2020207c    |       DCD    538976380
        0x00000528:    69502020      Pi    DCD    1766858784
        0x0000052c:    6f43206e    n Co    DCD    1866670190
        0x00000530:    6769666e    nfig    DCD    1734960750
        0x00000534:    20657275    ure     DCD    543519349
        0x00000538:    20202020            DCD    538976288
        0x0000053c:    20202020            DCD    538976288
        0x00000540:    20202020            DCD    538976288
        0x00000544:    20202020            DCD    538976288
        0x00000548:    20202020            DCD    538976288
        0x0000054c:    20202020            DCD    538976288
        0x00000550:    20202020            DCD    538976288
        0x00000554:    20202020            DCD    538976288
        0x00000558:    20202020            DCD    538976288
        0x0000055c:    20202020            DCD    538976288
        0x00000560:    00000a7c    |...    DCD    2684
        0x00000564:    5f20207c    |  _    DCD    1595940988
        0x00000568:    5f5f5f5f    ____    DCD    1600085855
        0x0000056c:    20205f5f    __      DCD    538992479
        0x00000570:    20202020            DCD    538976288
        0x00000574:    20202020            DCD    538976288
        0x00000578:    20202020            DCD    538976288
        0x0000057c:    20202020            DCD    538976288
        0x00000580:    20202020            DCD    538976288
        0x00000584:    20202020            DCD    538976288
        0x00000588:    20202020            DCD    538976288
        0x0000058c:    20202020            DCD    538976288
        0x00000590:    20202020            DCD    538976288
        0x00000594:    5f5f5f5f    ____    DCD    1600085855
        0x00000598:    205f5f5f    ___     DCD    543121247
        0x0000059c:    20202020            DCD    538976288
        0x000005a0:    00000a7c    |...    DCD    2684
        0x000005a4:    207c207c    | |     DCD    545005692
        0x000005a8:    20202020            DCD    538976288
        0x000005ac:    207c2020      |     DCD    545005600
        0x000005b0:    20202020            DCD    538976288
        0x000005b4:    20202020            DCD    538976288
        0x000005b8:    20202020            DCD    538976288
        0x000005bc:    20202020            DCD    538976288
        0x000005c0:    20202020            DCD    538976288
        0x000005c4:    20202020            DCD    538976288
        0x000005c8:    20202020            DCD    538976288
        0x000005cc:    20202020            DCD    538976288
        0x000005d0:    7c202020       |    DCD    2082480160
        0x000005d4:    20202020            DCD    538976288
        0x000005d8:    7c202020       |    DCD    2082480160
        0x000005dc:    20202020            DCD    538976288
        0x000005e0:    00000a7c    |...    DCD    2684
        0x000005e4:    4d7c207c    | |M    DCD    1299980412
        0x000005e8:    65747361    aste    DCD    1702130529
        0x000005ec:    2d7c2072    r |-    DCD    763109490
        0x000005f0:    58542d2d    --TX    DCD    1481911597
        0x000005f4:    70283144    D1(p    DCD    1881682244
        0x000005f8:    36346e69    in46    DCD    909405801
        0x000005fc:    3d3c2029    ) <=    DCD    1027350569
        0x00000600:    3e3d3d3d    ===>    DCD    1044200765
        0x00000604:    44585220     RXD    DCD    1146638880
        0x00000608:    69702831    1(pi    DCD    1768958001
        0x0000060c:    2935346e    n45)    DCD    691352686
        0x00000610:    7c2d2d2d    ---|    DCD    2083335469
        0x00000614:    616c5320     Sla    DCD    1634489120
        0x00000618:    7c206576    ve |    DCD    2082497910
        0x0000061c:    20202020            DCD    538976288
        0x00000620:    00000a7c    |...    DCD    2684
        0x00000624:    207c207c    | |     DCD    545005692
        0x00000628:    20202020            DCD    538976288
        0x0000062c:    2d7c2020      |-    DCD    763109408
        0x00000630:    54522d2d    --RT    DCD    1414671661
        0x00000634:    70283153    S1(p    DCD    1881682259
        0x00000638:    39336e69    in39    DCD    959671913
        0x0000063c:    3d3c2029    ) <=    DCD    1027350569
        0x00000640:    3e3d3d3d    ===>    DCD    1044200765
        0x00000644:    53544320     CTS    DCD    1398031136
        0x00000648:    69702831    1(pi    DCD    1768958001
        0x0000064c:    2930346e    n40)    DCD    691025006
        0x00000650:    7c2d2d2d    ---|    DCD    2083335469
        0x00000654:    20202020            DCD    538976288
        0x00000658:    7c202020       |    DCD    2082480160
        0x0000065c:    20202020            DCD    538976288
        0x00000660:    00000a7c    |...    DCD    2684
        0x00000664:    5f7c207c    | |_    DCD    1601970300
        0x00000668:    5f5f5f5f    ____    DCD    1600085855
        0x0000066c:    2d7c5f5f    __|-    DCD    763125599
        0x00000670:    54432d2d    --CT    DCD    1413688621
        0x00000674:    70283153    S1(p    DCD    1881682259
        0x00000678:    30346e69    in40    DCD    808742505
        0x0000067c:    3d3c2029    ) <=    DCD    1027350569
        0x00000680:    3e3d3d3d    ===>    DCD    1044200765
        0x00000684:    53545220     RTS    DCD    1398034976
        0x00000688:    69702831    1(pi    DCD    1768958001
        0x0000068c:    2939336e    n39)    DCD    691614574
        0x00000690:    7c2d2d2d    ---|    DCD    2083335469
        0x00000694:    5f5f5f5f    ____    DCD    1600085855
        0x00000698:    7c5f5f5f    ___|    DCD    2086625119
        0x0000069c:    20202020            DCD    538976288
        0x000006a0:    00000a7c    |...    DCD    2684
    $t
        0x000006a4:    a05a        Z.      ADR      r0,{pc}+0x16c ; 0x810
        0x000006a6:    f001ff47    ..G.    BL       __0printf$8 ; 0x2538
        0x000006aa:    a069        i.      ADR      r0,{pc}+0x1a6 ; 0x850
        0x000006ac:    f001ff44    ..D.    BL       __0printf$8 ; 0x2538
        0x000006b0:    4c77        wL      LDR      r4,[pc,#476] ; [0x890] = 0x40150000
        0x000006b2:    2101        .!      MOVS     r1,#1
        0x000006b4:    0249        I.      LSLS     r1,r1,#9
        0x000006b6:    2203        ."      MOVS     r2,#3
        0x000006b8:    6920         i      LDR      r0,[r4,#0x10]
        0x000006ba:    0412        ..      LSLS     r2,r2,#16
        0x000006bc:    4388        .C      BICS     r0,r0,r1
        0x000006be:    4308        .C      ORRS     r0,r0,r1
        0x000006c0:    6120         a      STR      r0,[r4,#0x10]
        0x000006c2:    68a0        .h      LDR      r0,[r4,#8]
        0x000006c4:    210f        .!      MOVS     r1,#0xf
        0x000006c6:    0409        ..      LSLS     r1,r1,#16
        0x000006c8:    4388        .C      BICS     r0,r0,r1
        0x000006ca:    4310        .C      ORRS     r0,r0,r2
        0x000006cc:    60a0        .`      STR      r0,[r4,#8]
        0x000006ce:    6860        `h      LDR      r0,[r4,#4]
        0x000006d0:    1111        ..      ASRS     r1,r2,#4
        0x000006d2:    4308        .C      ORRS     r0,r0,r1
        0x000006d4:    6060        ``      STR      r0,[r4,#4]
        0x000006d6:    486f        oH      LDR      r0,[pc,#444] ; [0x894] = 0x2a0
        0x000006d8:    f001ff2e    ....    BL       __0printf$8 ; 0x2538
        0x000006dc:    a06e        n.      ADR      r0,{pc}+0x1bc ; 0x898
        0x000006de:    f001ff2b    ..+.    BL       __0printf$8 ; 0x2538
        0x000006e2:    486c        lH      LDR      r0,[pc,#432] ; [0x894] = 0x2a0
        0x000006e4:    f001ff28    ..(.    BL       __0printf$8 ; 0x2538
        0x000006e8:    a07b        {.      ADR      r0,{pc}+0x1f0 ; 0x8d8
        0x000006ea:    f001ff25    ..%.    BL       __0printf$8 ; 0x2538
        0x000006ee:    a08a        ..      ADR      r0,{pc}+0x22a ; 0x918
        0x000006f0:    f001ff22    ..".    BL       __0printf$8 ; 0x2538
        0x000006f4:    a098        ..      ADR      r0,{pc}+0x264 ; 0x958
        0x000006f6:    f001ff1f    ....    BL       __0printf$8 ; 0x2538
        0x000006fa:    a0a7        ..      ADR      r0,{pc}+0x29e ; 0x998
        0x000006fc:    f001ff1c    ....    BL       __0printf$8 ; 0x2538
        0x00000700:    a0b5        ..      ADR      r0,{pc}+0x2d8 ; 0x9d8
        0x00000702:    f001ff19    ....    BL       __0printf$8 ; 0x2538
        0x00000706:    a0c4        ..      ADR      r0,{pc}+0x312 ; 0xa18
        0x00000708:    f001ff16    ....    BL       __0printf$8 ; 0x2538
        0x0000070c:    a0d2        ..      ADR      r0,{pc}+0x34c ; 0xa58
        0x0000070e:    f001ff13    ....    BL       __0printf$8 ; 0x2538
        0x00000712:    a04f        O.      ADR      r0,{pc}+0x13e ; 0x850
        0x00000714:    f001ff10    ....    BL       __0printf$8 ; 0x2538
        0x00000718:    48df        .H      LDR      r0,[pc,#892] ; [0xa98] = 0x20000038
        0x0000071a:    f002f977    ..w.    BL       getc ; 0x2a0c
        0x0000071e:    2601        .&      MOVS     r6,#1
        0x00000720:    b2c0        ..      UXTB     r0,r0
        0x00000722:    0376        v.      LSLS     r6,r6,#13
        0x00000724:    4ddd        .M      LDR      r5,[pc,#884] ; [0xa9c] = 0x3ff
        0x00000726:    2830        0(      CMP      r0,#0x30
        0x00000728:    d01a        ..      BEQ      0x760 ; AutoFlow_FunctionTest + 1270
        0x0000072a:    4fdd        .O      LDR      r7,[pc,#884] ; [0xaa0] = 0x20000020
        0x0000072c:    2000        .       MOVS     r0,#0
        0x0000072e:    6138        8a      STR      r0,[r7,#0x10]
        0x00000730:    6860        `h      LDR      r0,[r4,#4]
        0x00000732:    2113        .!      MOVS     r1,#0x13
        0x00000734:    4308        .C      ORRS     r0,r0,r1
        0x00000736:    6060        ``      STR      r0,[r4,#4]
        0x00000738:    68a0        .h      LDR      r0,[r4,#8]
        0x0000073a:    21f0        .!      MOVS     r1,#0xf0
        0x0000073c:    4388        .C      BICS     r0,r0,r1
        0x0000073e:    3020         0      ADDS     r0,r0,#0x20
        0x00000740:    60a0        .`      STR      r0,[r4,#8]
        0x00000742:    6a21        !j      LDR      r1,[r4,#0x20]
        0x00000744:    203e        >       MOVS     r0,#0x3e
        0x00000746:    0a09        ..      LSRS     r1,r1,#8
        0x00000748:    0209        ..      LSLS     r1,r1,#8
        0x0000074a:    4301        .C      ORRS     r1,r1,r0
        0x0000074c:    6221        !b      STR      r1,[r4,#0x20]
        0x0000074e:    6860        `h      LDR      r0,[r4,#4]
        0x00000750:    10b1        ..      ASRS     r1,r6,#2
        0x00000752:    4308        .C      ORRS     r0,r0,r1
        0x00000754:    6060        ``      STR      r0,[r4,#4]
        0x00000756:    48d3        .H      LDR      r0,[pc,#844] ; [0xaa4] = 0xe000e100
        0x00000758:    6006        .`      STR      r6,[r0,#0]
        0x0000075a:    1049        I.      ASRS     r1,r1,#1
        0x0000075c:    a0d2        ..      ADR      r0,{pc}+0x34c ; 0xaa8
        0x0000075e:    e00d        ..      B        0x77c ; AutoFlow_FunctionTest + 1298
        0x00000760:    2000        .       MOVS     r0,#0
        0x00000762:    1c41        A.      ADDS     r1,r0,#1
        0x00000764:    b2c9        ..      UXTB     r1,r1
        0x00000766:    6021        !`      STR      r1,[r4,#0]
        0x00000768:    6921        !i      LDR      r1,[r4,#0x10]
        0x0000076a:    0489        ..      LSLS     r1,r1,#18
        0x0000076c:    d4fc        ..      BMI      0x768 ; AutoFlow_FunctionTest + 1278
        0x0000076e:    1c40        @.      ADDS     r0,r0,#1
        0x00000770:    42a8        .B      CMP      r0,r5
        0x00000772:    d3f6        ..      BCC      0x762 ; AutoFlow_FunctionTest + 1272
        0x00000774:    a0d6        ..      ADR      r0,{pc}+0x35c ; 0xad0
        0x00000776:    e015        ..      B        0x7a4 ; AutoFlow_FunctionTest + 1338
        0x00000778:    6939        9i      LDR      r1,[r7,#0x10]
        0x0000077a:    a0da        ..      ADR      r0,{pc}+0x36a ; 0xae4
        0x0000077c:    f001fedc    ....    BL       __0printf$8 ; 0x2538
        0x00000780:    6938        8i      LDR      r0,[r7,#0x10]
        0x00000782:    42a8        .B      CMP      r0,r5
        0x00000784:    dbf8        ..      BLT      0x778 ; AutoFlow_FunctionTest + 1294
        0x00000786:    49d8        .I      LDR      r1,[pc,#864] ; [0xae8] = 0x20000048
        0x00000788:    2000        .       MOVS     r0,#0
        0x0000078a:    5c0b        .\      LDRB     r3,[r1,r0]
        0x0000078c:    1c42        B.      ADDS     r2,r0,#1
        0x0000078e:    b2d2        ..      UXTB     r2,r2
        0x00000790:    4293        .B      CMP      r3,r2
        0x00000792:    d003        ..      BEQ      0x79c ; AutoFlow_FunctionTest + 1330
        0x00000794:    a0d5        ..      ADR      r0,{pc}+0x358 ; 0xaec
        0x00000796:    f001fecf    ....    BL       __0printf$8 ; 0x2538
        0x0000079a:    e7fe        ..      B        0x79a ; AutoFlow_FunctionTest + 1328
        0x0000079c:    1c40        @.      ADDS     r0,r0,#1
        0x0000079e:    42a8        .B      CMP      r0,r5
        0x000007a0:    d1f3        ..      BNE      0x78a ; AutoFlow_FunctionTest + 1312
        0x000007a2:    a0d8        ..      ADR      r0,{pc}+0x362 ; 0xb04
        0x000007a4:    f001fec8    ....    BL       __0printf$8 ; 0x2538
        0x000007a8:    48be        .H      LDR      r0,[pc,#760] ; [0xaa4] = 0xe000e100
        0x000007aa:    3080        .0      ADDS     r0,r0,#0x80
        0x000007ac:    6006        .`      STR      r6,[r0,#0]
        0x000007ae:    6861        ah      LDR      r1,[r4,#4]
        0x000007b0:    2013        .       MOVS     r0,#0x13
        0x000007b2:    4381        .C      BICS     r1,r1,r0
        0x000007b4:    6061        a`      STR      r1,[r4,#4]
        0x000007b6:    bdf8        ..      POP      {r3-r7,pc}
    UART_FunctionTest
        0x000007b8:    b570        p.      PUSH     {r4-r6,lr}
        0x000007ba:    4836        6H      LDR      r0,[pc,#216] ; [0x894] = 0x2a0
        0x000007bc:    f001febc    ....    BL       __0printf$8 ; 0x2538
        0x000007c0:    a0d7        ..      ADR      r0,{pc}+0x360 ; 0xb20
        0x000007c2:    f001feb9    ....    BL       __0printf$8 ; 0x2538
        0x000007c6:    4833        3H      LDR      r0,[pc,#204] ; [0x894] = 0x2a0
        0x000007c8:    f001feb6    ....    BL       __0printf$8 ; 0x2538
        0x000007cc:    a042        B.      ADR      r0,{pc}+0x10c ; 0x8d8
        0x000007ce:    f001feb3    ....    BL       __0printf$8 ; 0x2538
        0x000007d2:    a0e3        ..      ADR      r0,{pc}+0x38e ; 0xb60
        0x000007d4:    f001feb0    ....    BL       __0printf$8 ; 0x2538
        0x000007d8:    a0f1        ..      ADR      r0,{pc}+0x3c8 ; 0xba0
        0x000007da:    f001fead    ....    BL       __0printf$8 ; 0x2538
        0x000007de:    482d        -H      LDR      r0,[pc,#180] ; [0x894] = 0x2a0
        0x000007e0:    f001feaa    ....    BL       __0printf$8 ; 0x2538
        0x000007e4:    4afe        .J      LDR      r2,[pc,#1016] ; [0xbe0] = 0x40050000
        0x000007e6:    6850        Ph      LDR      r0,[r2,#4]
        0x000007e8:    2413        .$      MOVS     r4,#0x13
        0x000007ea:    4320         C      ORRS     r0,r0,r4
        0x000007ec:    6050        P`      STR      r0,[r2,#4]
        0x000007ee:    2501        .%      MOVS     r5,#1
        0x000007f0:    48ac        .H      LDR      r0,[pc,#688] ; [0xaa4] = 0xe000e100
        0x000007f2:    032b        +.      LSLS     r3,r5,#12
        0x000007f4:    6003        .`      STR      r3,[r0,#0]
        0x000007f6:    48aa        .H      LDR      r0,[pc,#680] ; [0xaa0] = 0x20000020
        0x000007f8:    68c1        .h      LDR      r1,[r0,#0xc]
        0x000007fa:    2900        .)      CMP      r1,#0
        0x000007fc:    d1fc        ..      BNE      0x7f8 ; UART_FunctionTest + 64
        0x000007fe:    6851        Qh      LDR      r1,[r2,#4]
        0x00000800:    43a1        .C      BICS     r1,r1,r4
        0x00000802:    6051        Q`      STR      r1,[r2,#4]
        0x00000804:    49a7        .I      LDR      r1,[pc,#668] ; [0xaa4] = 0xe000e100
        0x00000806:    3180        .1      ADDS     r1,r1,#0x80
        0x00000808:    600b        .`      STR      r3,[r1,#0]
        0x0000080a:    60c5        .`      STR      r5,[r0,#0xc]
        0x0000080c:    e1ea        ..      B        0xbe4 ; UART_FunctionTest + 1068
    $d
        0x0000080e:    0000        ..      DCW    0
        0x00000810:    2020207c    |       DCD    538976380
        0x00000814:    20202020            DCD    538976288
        0x00000818:    20202020            DCD    538976288
        0x0000081c:    20202020            DCD    538976288
        0x00000820:    20202020            DCD    538976288
        0x00000824:    20202020            DCD    538976288
        0x00000828:    20202020            DCD    538976288
        0x0000082c:    20202020            DCD    538976288
        0x00000830:    20202020            DCD    538976288
        0x00000834:    20202020            DCD    538976288
        0x00000838:    20202020            DCD    538976288
        0x0000083c:    20202020            DCD    538976288
        0x00000840:    20202020            DCD    538976288
        0x00000844:    20202020            DCD    538976288
        0x00000848:    20202020            DCD    538976288
        0x0000084c:    00000a7c    |...    DCD    2684
        0x00000850:    2d2d2d2b    +---    DCD    757935403
        0x00000854:    2d2d2d2d    ----    DCD    757935405
        0x00000858:    2d2d2d2d    ----    DCD    757935405
        0x0000085c:    2d2d2d2d    ----    DCD    757935405
        0x00000860:    2d2d2d2d    ----    DCD    757935405
        0x00000864:    2d2d2d2d    ----    DCD    757935405
        0x00000868:    2d2d2d2d    ----    DCD    757935405
        0x0000086c:    2d2d2d2d    ----    DCD    757935405
        0x00000870:    2d2d2d2d    ----    DCD    757935405
        0x00000874:    2d2d2d2d    ----    DCD    757935405
        0x00000878:    2d2d2d2d    ----    DCD    757935405
        0x0000087c:    2d2d2d2d    ----    DCD    757935405
        0x00000880:    2d2d2d2d    ----    DCD    757935405
        0x00000884:    2d2d2d2d    ----    DCD    757935405
        0x00000888:    2d2d2d2d    ----    DCD    757935405
        0x0000088c:    000a0a2b    +...    DCD    657963
        0x00000890:    40150000    ...@    DCD    1075118080
        0x00000894:    000002a0    ....    DCD    672
        0x00000898:    2020207c    |       DCD    538976380
        0x0000089c:    20202020            DCD    538976288
        0x000008a0:    6f747541    Auto    DCD    1869903169
        0x000008a4:    776f6c46    Flow    DCD    2003790918
        0x000008a8:    6e754620     Fun    DCD    1853179424
        0x000008ac:    6f697463    ctio    DCD    1869182051
        0x000008b0:    6554206e    n Te    DCD    1700012142
        0x000008b4:    20207473    st      DCD    538997875
        0x000008b8:    20202020            DCD    538976288
        0x000008bc:    20202020            DCD    538976288
        0x000008c0:    20202020            DCD    538976288
        0x000008c4:    20202020            DCD    538976288
        0x000008c8:    20202020            DCD    538976288
        0x000008cc:    20202020            DCD    538976288
        0x000008d0:    20202020            DCD    538976288
        0x000008d4:    00000a7c    |...    DCD    2684
        0x000008d8:    4420207c    |  D    DCD    1142956156
        0x000008dc:    72637365    escr    DCD    1919120229
        0x000008e0:    69747069    ipti    DCD    1769238633
        0x000008e4:    3a206e6f    on :    DCD    975203951
        0x000008e8:    20202020            DCD    538976288
        0x000008ec:    20202020            DCD    538976288
        0x000008f0:    20202020            DCD    538976288
        0x000008f4:    20202020            DCD    538976288
        0x000008f8:    20202020            DCD    538976288
        0x000008fc:    20202020            DCD    538976288
        0x00000900:    20202020            DCD    538976288
        0x00000904:    20202020            DCD    538976288
        0x00000908:    20202020            DCD    538976288
        0x0000090c:    20202020            DCD    538976288
        0x00000910:    20202020            DCD    538976288
        0x00000914:    00000a7c    |...    DCD    2684
        0x00000918:    2020207c    |       DCD    538976380
        0x0000091c:    65685420     The    DCD    1701336096
        0x00000920:    6d617320     sam    DCD    1835103008
        0x00000924:    20656c70    ple     DCD    543517808
        0x00000928:    65646f63    code    DCD    1701080931
        0x0000092c:    65656e20     nee    DCD    1701146144
        0x00000930:    74207364    ds t    DCD    1948283748
        0x00000934:    62206f77    wo b    DCD    1646292855
        0x00000938:    6472616f    oard    DCD    1685217647
        0x0000093c:    4f202e73    s. O    DCD    1327509107
        0x00000940:    6920656e    ne i    DCD    1763730798
        0x00000944:    614d2073    s Ma    DCD    1632444531
        0x00000948:    72657473    ster    DCD    1919251571
        0x0000094c:    646e6120     and    DCD    1684955424
        0x00000950:    20202020            DCD    538976288
        0x00000954:    00000a7c    |...    DCD    2684
        0x00000958:    2020207c    |       DCD    538976380
        0x0000095c:    65687420     the    DCD    1701344288
        0x00000960:    68746f20     oth    DCD    1752461088
        0x00000964:    69207265    er i    DCD    1763734117
        0x00000968:    6c732073    s sl    DCD    1819484275
        0x0000096c:    2e657661    ave.    DCD    778401377
        0x00000970:    73614d20     Mas    DCD    1935756576
        0x00000974:    20726574    ter     DCD    544367988
        0x00000978:    6c6c6977    will    DCD    1819044215
        0x0000097c:    6e657320     sen    DCD    1852142368
        0x00000980:    6b312064    d 1k    DCD    1798381668
        0x00000984:    74796220     byt    DCD    1954112032
        0x00000988:    64207365    es d    DCD    1679848293
        0x0000098c:    20617461    ata     DCD    543257697
        0x00000990:    20202020            DCD    538976288
        0x00000994:    00000a7c    |...    DCD    2684
        0x00000998:    2020207c    |       DCD    538976380
        0x0000099c:    206f7420     to     DCD    544175136
        0x000009a0:    76616c73    slav    DCD    1986096243
        0x000009a4:    6c532e65    e.Sl    DCD    1817390693
        0x000009a8:    20657661    ave     DCD    543520353
        0x000009ac:    6c6c6977    will    DCD    1819044215
        0x000009b0:    65686320     che    DCD    1701339936
        0x000009b4:    69206b63    ck i    DCD    1763732323
        0x000009b8:    65722066    f re    DCD    1701978214
        0x000009bc:    76696563    ceiv    DCD    1986618723
        0x000009c0:    64206465    ed d    DCD    1679844453
        0x000009c4:    20617461    ata     DCD    543257697
        0x000009c8:    63207369    is c    DCD    1663071081
        0x000009cc:    6572726f    orre    DCD    1701999215
        0x000009d0:    20207463    ct      DCD    538997859
        0x000009d4:    00000a7c    |...    DCD    2684
        0x000009d8:    2020207c    |       DCD    538976380
        0x000009dc:    74666120     aft    DCD    1952866592
        0x000009e0:    67207265    er g    DCD    1730179685
        0x000009e4:    69747465    etti    DCD    1769239653
        0x000009e8:    3120676e    ng 1    DCD    824207214
        0x000009ec:    7962206b    k by    DCD    2036473963
        0x000009f0:    20736574    tes     DCD    544433524
        0x000009f4:    61746164    data    DCD    1635017060
        0x000009f8:    2020202e    .       DCD    538976302
        0x000009fc:    20202020            DCD    538976288
        0x00000a00:    20202020            DCD    538976288
        0x00000a04:    20202020            DCD    538976288
        0x00000a08:    20202020            DCD    538976288
        0x00000a0c:    20202020            DCD    538976288
        0x00000a10:    20202020            DCD    538976288
        0x00000a14:    00000a7c    |...    DCD    2684
        0x00000a18:    5020207c    |  P    DCD    1344282748
        0x00000a1c:    7361656c    leas    DCD    1935762796
        0x00000a20:    65732065    e se    DCD    1702043749
        0x00000a24:    7463656c    lect    DCD    1952671084
        0x00000a28:    73614d20     Mas    DCD    1935756576
        0x00000a2c:    20726574    ter     DCD    544367988
        0x00000a30:    5320726f    or S    DCD    1394635375
        0x00000a34:    6576616c    lave    DCD    1702257004
        0x00000a38:    73657420     tes    DCD    1936028704
        0x00000a3c:    20202074    t       DCD    538976372
        0x00000a40:    20202020            DCD    538976288
        0x00000a44:    20202020            DCD    538976288
        0x00000a48:    20202020            DCD    538976288
        0x00000a4c:    20202020            DCD    538976288
        0x00000a50:    20202020            DCD    538976288
        0x00000a54:    00000a7c    |...    DCD    2684
        0x00000a58:    5b20207c    |  [    DCD    1528832124
        0x00000a5c:    4d205d30    0] M    DCD    1293966640
        0x00000a60:    65747361    aste    DCD    1702130529
        0x00000a64:    20202072    r       DCD    538976370
        0x00000a68:    5d315b20     [1]    DCD    1563515680
        0x00000a6c:    616c5320     Sla    DCD    1634489120
        0x00000a70:    20206576    ve      DCD    538994038
        0x00000a74:    20202020            DCD    538976288
        0x00000a78:    20202020            DCD    538976288
        0x00000a7c:    20202020            DCD    538976288
        0x00000a80:    20202020            DCD    538976288
        0x00000a84:    20202020            DCD    538976288
        0x00000a88:    20202020            DCD    538976288
        0x00000a8c:    20202020            DCD    538976288
        0x00000a90:    20202020            DCD    538976288
        0x00000a94:    00000a7c    |...    DCD    2684
        0x00000a98:    20000038    8..     DCD    536870968
        0x00000a9c:    000003ff    ....    DCD    1023
        0x00000aa0:    20000020     ..     DCD    536870944
        0x00000aa4:    e000e100    ....    DCD    3758153984
        0x00000aa8:    72617453    Star    DCD    1918989395
        0x00000aac:    676e6974    ting    DCD    1735289204
        0x00000ab0:    206f7420     to     DCD    544175136
        0x00000ab4:    65636572    rece    DCD    1701012850
        0x00000ab8:    65636976    vice    DCD    1701013878
        0x00000abc:    20642520     %d     DCD    543434016
        0x00000ac0:    65747962    byte    DCD    1702132066
        0x00000ac4:    61642073    s da    DCD    1633951859
        0x00000ac8:    2e2e6174    ta..    DCD    774791540
        0x00000acc:    00000a2e    ....    DCD    2606
        0x00000ad0:    7254200a    . Tr    DCD    1918115850
        0x00000ad4:    6d736e61    ansm    DCD    1836281441
        0x00000ad8:    44207469    it D    DCD    1142977641
        0x00000adc:    0a656e6f    one.    DCD    174419567
        0x00000ae0:    00000000    ....    DCD    0
        0x00000ae4:    000d6425    %d..    DCD    877605
        0x00000ae8:    20000048    H..     DCD    536870984
        0x00000aec:    706d6f43    Comp    DCD    1886220099
        0x00000af0:    20657261    are     DCD    543519329
        0x00000af4:    61746144    Data    DCD    1635017028
        0x00000af8:    69614620     Fai    DCD    1767982624
        0x00000afc:    0a64656c    led.    DCD    174351724
        0x00000b00:    00000000    ....    DCD    0
        0x00000b04:    6552200a    . Re    DCD    1699880970
        0x00000b08:    76696563    ceiv    DCD    1986618723
        0x00000b0c:    4b4f2065    e OK    DCD    1263476837
        0x00000b10:    43202620     & C    DCD    1126180384
        0x00000b14:    6b636568    heck    DCD    1801676136
        0x00000b18:    0a4b4f20     OK.    DCD    172707616
        0x00000b1c:    00000000    ....    DCD    0
        0x00000b20:    5520207c    |  U    DCD    1428168828
        0x00000b24:    20545241    ART     DCD    542396993
        0x00000b28:    636e7546    Func    DCD    1668183366
        0x00000b2c:    6e6f6974    tion    DCD    1852795252
        0x00000b30:    73655420     Tes    DCD    1936020512
        0x00000b34:    20202074    t       DCD    538976372
        0x00000b38:    20202020            DCD    538976288
        0x00000b3c:    20202020            DCD    538976288
        0x00000b40:    20202020            DCD    538976288
        0x00000b44:    20202020            DCD    538976288
        0x00000b48:    20202020            DCD    538976288
        0x00000b4c:    20202020            DCD    538976288
        0x00000b50:    20202020            DCD    538976288
        0x00000b54:    20202020            DCD    538976288
        0x00000b58:    20202020            DCD    538976288
        0x00000b5c:    00000a7c    |...    DCD    2684
        0x00000b60:    2020207c    |       DCD    538976380
        0x00000b64:    65685420     The    DCD    1701336096
        0x00000b68:    6d617320     sam    DCD    1835103008
        0x00000b6c:    20656c70    ple     DCD    543517808
        0x00000b70:    65646f63    code    DCD    1701080931
        0x00000b74:    6c697720     wil    DCD    1818851104
        0x00000b78:    7270206c    l pr    DCD    1919950956
        0x00000b7c:    20746e69    int     DCD    544501353
        0x00000b80:    75706e69    inpu    DCD    1970302569
        0x00000b84:    68632074    t ch    DCD    1751326836
        0x00000b88:    6f207261    ar o    DCD    1864397409
        0x00000b8c:    6574206e    n te    DCD    1702109294
        0x00000b90:    6e696d72    rmin    DCD    1852403058
        0x00000b94:    20206c61    al      DCD    538995809
        0x00000b98:    20202020            DCD    538976288
        0x00000b9c:    00000a7c    |...    DCD    2684
        0x00000ba0:    2020207c    |       DCD    538976380
        0x00000ba4:    656c5020     Ple    DCD    1701597216
        0x00000ba8:    20657361    ase     DCD    543519585
        0x00000bac:    65746e65    ente    DCD    1702129253
        0x00000bb0:    6e612072    r an    DCD    1851859058
        0x00000bb4:    6f742079    y to    DCD    1869881465
        0x00000bb8:    61747320     sta    DCD    1635021600
        0x00000bbc:    20207472    rt      DCD    538997874
        0x00000bc0:    28202020       (    DCD    673194016
        0x00000bc4:    73657250    Pres    DCD    1936028240
        0x00000bc8:    30272073    s '0    DCD    807870579
        0x00000bcc:    6f742027    ' to    DCD    1869881383
        0x00000bd0:    69786520     exi    DCD    1769497888
        0x00000bd4:    20202974    t)      DCD    538978676
        0x00000bd8:    20202020            DCD    538976288
        0x00000bdc:    00000a7c    |...    DCD    2684
        0x00000be0:    40050000    ...@    DCD    1074069504
    $t
        0x00000be4:    a048        H.      ADR      r0,{pc}+0x124 ; 0xd08
        0x00000be6:    f001fca7    ....    BL       __0printf$8 ; 0x2538
        0x00000bea:    bd70        p.      POP      {r4-r6,pc}
    main
        0x00000bec:    b510        ..      PUSH     {r4,lr}
        0x00000bee:    f7fffafe    ....    BL       SYS_Init ; 0x1ee
        0x00000bf2:    f7fffb2e    ....    BL       UART0_Init ; 0x252
        0x00000bf6:    f7fffb32    ..2.    BL       UART1_Init ; 0x25e
        0x00000bfa:    4849        IH      LDR      r0,[pc,#292] ; [0xd20] = 0x20000000
        0x00000bfc:    6801        .h      LDR      r1,[r0,#0]
        0x00000bfe:    a049        I.      ADR      r0,{pc}+0x126 ; 0xd24
        0x00000c00:    f001fc9a    ....    BL       __0printf$8 ; 0x2538
        0x00000c04:    f7fffaca    ....    BL       TestItem ; 0x19c
        0x00000c08:    484a        JH      LDR      r0,[pc,#296] ; [0xd34] = 0x20000038
        0x00000c0a:    f001feff    ....    BL       getc ; 0x2a0c
        0x00000c0e:    4604        .F      MOV      r4,r0
        0x00000c10:    4601        .F      MOV      r1,r0
        0x00000c12:    a049        I.      ADR      r0,{pc}+0x126 ; 0xd38
        0x00000c14:    f001fc90    ....    BL       __0printf$8 ; 0x2538
        0x00000c18:    4620         F      MOV      r0,r4
        0x00000c1a:    3831        18      SUBS     r0,r0,#0x31
        0x00000c1c:    0003        ..      MOVS     r3,r0
        0x00000c1e:    f001fc9b    ....    BL       __ARM_common_switch8 ; 0x2558
    $d
        0x00000c22:    0406        ..      DCW    1030
        0x00000c24:    100d0a07    ....    DCD    269289991
        0x00000c28:    1613        ..      DCW    5651
    $t
        0x00000c2a:    f7fffdc5    ....    BL       UART_FunctionTest ; 0x7b8
        0x00000c2e:    e7e9        ..      B        0xc04 ; main + 24
        0x00000c30:    f000f8fe    ....    BL       IrDA_FunctionTest ; 0xe30
        0x00000c34:    e7e6        ..      B        0xc04 ; main + 24
        0x00000c36:    f001f888    ....    BL       RS485_FunctionTest ; 0x1d4a
        0x00000c3a:    e7e3        ..      B        0xc04 ; main + 24
        0x00000c3c:    f000fd33    ..3.    BL       LIN_FunctionTest ; 0x16a6
        0x00000c40:    e7e0        ..      B        0xc04 ; main + 24
        0x00000c42:    f7fffb12    ....    BL       AutoFlow_FunctionTest ; 0x26a
        0x00000c46:    e7dd        ..      B        0xc04 ; main + 24
        0x00000c48:    f000ff2c    ..,.    BL       LIN_FunctionTestUsingLinCtlReg ; 0x1aa4
        0x00000c4c:    e7da        ..      B        0xc04 ; main + 24
        0x00000c4e:    2c1b        .,      CMP      r4,#0x1b
        0x00000c50:    d1d8        ..      BNE      0xc04 ; main + 24
        0x00000c52:    2000        .       MOVS     r0,#0
        0x00000c54:    bd10        ..      POP      {r4,pc}
    UART_TEST_HANDLE
        0x00000c56:    b5f8        ..      PUSH     {r3-r7,lr}
        0x00000c58:    4f38        8O      LDR      r7,[pc,#224] ; [0xd3c] = 0x40050000
        0x00000c5a:    69fd        .i      LDR      r5,[r7,#0x1c]
        0x00000c5c:    4e38        8N      LDR      r6,[pc,#224] ; [0xd40] = 0x20000020
        0x00000c5e:    05e8        ..      LSLS     r0,r5,#23
        0x00000c60:    d527        '.      BPL      0xcb2 ; UART_TEST_HANDLE + 92
        0x00000c62:    a038        8.      ADR      r0,{pc}+0xe2 ; 0xd44
        0x00000c64:    f001fc68    ..h.    BL       __0printf$8 ; 0x2538
        0x00000c68:    e01d        ..      B        0xca6 ; UART_TEST_HANDLE + 80
        0x00000c6a:    6838        8h      LDR      r0,[r7,#0]
        0x00000c6c:    b2c4        ..      UXTB     r4,r0
        0x00000c6e:    4621        !F      MOV      r1,r4
        0x00000c70:    a036        6.      ADR      r0,{pc}+0xdc ; 0xd4c
        0x00000c72:    f001fc61    ..a.    BL       __0printf$8 ; 0x2538
        0x00000c76:    2c30        0,      CMP      r4,#0x30
        0x00000c78:    d101        ..      BNE      0xc7e ; UART_TEST_HANDLE + 40
        0x00000c7a:    2000        .       MOVS     r0,#0
        0x00000c7c:    60f0        .`      STR      r0,[r6,#0xc]
        0x00000c7e:    6831        1h      LDR      r1,[r6,#0]
        0x00000c80:    2001        .       MOVS     r0,#1
        0x00000c82:    0280        ..      LSLS     r0,r0,#10
        0x00000c84:    4281        .B      CMP      r1,r0
        0x00000c86:    d20e        ..      BCS      0xca6 ; UART_TEST_HANDLE + 80
        0x00000c88:    4831        1H      LDR      r0,[pc,#196] ; [0xd50] = 0x20000048
        0x00000c8a:    68b1        .h      LDR      r1,[r6,#8]
        0x00000c8c:    5444        DT      STRB     r4,[r0,r1]
        0x00000c8e:    68b1        .h      LDR      r1,[r6,#8]
        0x00000c90:    4830        0H      LDR      r0,[pc,#192] ; [0xd54] = 0x3ff
        0x00000c92:    4281        .B      CMP      r1,r0
        0x00000c94:    d101        ..      BNE      0xc9a ; UART_TEST_HANDLE + 68
        0x00000c96:    2000        .       MOVS     r0,#0
        0x00000c98:    e001        ..      B        0xc9e ; UART_TEST_HANDLE + 72
        0x00000c9a:    68b0        .h      LDR      r0,[r6,#8]
        0x00000c9c:    1c40        @.      ADDS     r0,r0,#1
        0x00000c9e:    60b0        .`      STR      r0,[r6,#8]
        0x00000ca0:    6830        0h      LDR      r0,[r6,#0]
        0x00000ca2:    1c40        @.      ADDS     r0,r0,#1
        0x00000ca4:    6030        0`      STR      r0,[r6,#0]
        0x00000ca6:    69f8        .i      LDR      r0,[r7,#0x1c]
        0x00000ca8:    07c0        ..      LSLS     r0,r0,#31
        0x00000caa:    d1de        ..      BNE      0xc6a ; UART_TEST_HANDLE + 20
        0x00000cac:    a02a        *.      ADR      r0,{pc}+0xac ; 0xd58
        0x00000cae:    f001fc43    ..C.    BL       __0printf$8 ; 0x2538
        0x00000cb2:    05a8        ..      LSLS     r0,r5,#22
        0x00000cb4:    d514        ..      BPL      0xce0 ; UART_TEST_HANDLE + 138
        0x00000cb6:    68b0        .h      LDR      r0,[r6,#8]
        0x00000cb8:    6871        qh      LDR      r1,[r6,#4]
        0x00000cba:    b280        ..      UXTH     r0,r0
        0x00000cbc:    4281        .B      CMP      r1,r0
        0x00000cbe:    d00f        ..      BEQ      0xce0 ; UART_TEST_HANDLE + 138
        0x00000cc0:    4823        #H      LDR      r0,[pc,#140] ; [0xd50] = 0x20000048
        0x00000cc2:    6871        qh      LDR      r1,[r6,#4]
        0x00000cc4:    5c40        @\      LDRB     r0,[r0,r1]
        0x00000cc6:    6038        8`      STR      r0,[r7,#0]
        0x00000cc8:    6871        qh      LDR      r1,[r6,#4]
        0x00000cca:    4822        "H      LDR      r0,[pc,#136] ; [0xd54] = 0x3ff
        0x00000ccc:    4281        .B      CMP      r1,r0
        0x00000cce:    d101        ..      BNE      0xcd4 ; UART_TEST_HANDLE + 126
        0x00000cd0:    2000        .       MOVS     r0,#0
        0x00000cd2:    e001        ..      B        0xcd8 ; UART_TEST_HANDLE + 130
        0x00000cd4:    6870        ph      LDR      r0,[r6,#4]
        0x00000cd6:    1c40        @.      ADDS     r0,r0,#1
        0x00000cd8:    6070        p`      STR      r0,[r6,#4]
        0x00000cda:    6830        0h      LDR      r0,[r6,#0]
        0x00000cdc:    1e40        @.      SUBS     r0,r0,#1
        0x00000cde:    6030        0`      STR      r0,[r6,#0]
        0x00000ce0:    bdf8        ..      POP      {r3-r7,pc}
    UART02_IRQHandler
        0x00000ce2:    e7b8        ..      B        UART_TEST_HANDLE ; 0xc56
    UART1_IRQHandler
        0x00000ce4:    b510        ..      PUSH     {r4,lr}
        0x00000ce6:    f000ff23    ..#.    BL       RS485_HANDLE ; 0x1b30
        0x00000cea:    bd10        ..      POP      {r4,pc}
    SYS_WaitingForClockReady
        0x00000cec:    b510        ..      PUSH     {r4,lr}
        0x00000cee:    4604        .F      MOV      r4,r0
        0x00000cf0:    491e        .I      LDR      r1,[pc,#120] ; [0xd6c] = 0x3d090
        0x00000cf2:    4b1f        .K      LDR      r3,[pc,#124] ; [0xd70] = 0x50000200
        0x00000cf4:    e003        ..      B        0xcfe ; SYS_WaitingForClockReady + 18
        0x00000cf6:    460a        .F      MOV      r2,r1
        0x00000cf8:    1e49        I.      SUBS     r1,r1,#1
        0x00000cfa:    2a00        .*      CMP      r2,#0
        0x00000cfc:    dd03        ..      BLE      0xd06 ; SYS_WaitingForClockReady + 26
        0x00000cfe:    68da        .h      LDR      r2,[r3,#0xc]
        0x00000d00:    4620         F      MOV      r0,r4
        0x00000d02:    4390        .C      BICS     r0,r0,r2
        0x00000d04:    d1f7        ..      BNE      0xcf6 ; SYS_WaitingForClockReady + 10
        0x00000d06:    bd10        ..      POP      {r4,pc}
    $d
        0x00000d08:    5241550a    .UAR    DCD    1380013322
        0x00000d0c:    61532054    T Sa    DCD    1632837716
        0x00000d10:    656c706d    mple    DCD    1701605485
        0x00000d14:    6d654420     Dem    DCD    1835353120
        0x00000d18:    6e45206f    o En    DCD    1850024047
        0x00000d1c:    000a2e64    d...    DCD    667236
        0x00000d20:    20000000    ...     DCD    536870912
        0x00000d24:    50430a0a    ..CP    DCD    1346570762
        0x00000d28:    20402055    U @     DCD    541073493
        0x00000d2c:    7a486425    %dHz    DCD    2051564581
        0x00000d30:    0000000a    ....    DCD    10
        0x00000d34:    20000038    8..     DCD    536870968
        0x00000d38:    000a6325    %c..    DCD    680741
        0x00000d3c:    40050000    ...@    DCD    1074069504
        0x00000d40:    20000020     ..     DCD    536870944
        0x00000d44:    706e490a    .Inp    DCD    1886275850
        0x00000d48:    003a7475    ut:.    DCD    3830901
        0x00000d4c:    00206325    %c .    DCD    2122533
        0x00000d50:    20000048    H..     DCD    536870984
        0x00000d54:    000003ff    ....    DCD    1023
        0x00000d58:    6172540a    .Tra    DCD    1634882570
        0x00000d5c:    696d736e    nsmi    DCD    1768780654
        0x00000d60:    6f697373    ssio    DCD    1869181811
        0x00000d64:    6554206e    n Te    DCD    1700012142
        0x00000d68:    003a7473    st:.    DCD    3830899
        0x00000d6c:    0003d090    ....    DCD    250000
        0x00000d70:    50000200    ...P    DCD    1342177792
    $t
    .text
    IrDA_FunctionRxTest
        0x00000d74:    b570        p.      PUSH     {r4-r6,lr}
        0x00000d76:    24ff        .$      MOVS     r4,#0xff
        0x00000d78:    a03a        :.      ADR      r0,{pc}+0xec ; 0xe64
        0x00000d7a:    f001fbdd    ....    BL       __0printf$8 ; 0x2538
        0x00000d7e:    a03a        :.      ADR      r0,{pc}+0xea ; 0xe68
        0x00000d80:    f001fbda    ....    BL       __0printf$8 ; 0x2538
        0x00000d84:    a048        H.      ADR      r0,{pc}+0x124 ; 0xea8
        0x00000d86:    f001fbd7    ....    BL       __0printf$8 ; 0x2538
        0x00000d8a:    a037        7.      ADR      r0,{pc}+0xde ; 0xe68
        0x00000d8c:    f001fbd4    ....    BL       __0printf$8 ; 0x2538
        0x00000d90:    a055        U.      ADR      r0,{pc}+0x158 ; 0xee8
        0x00000d92:    f001fbd1    ....    BL       __0printf$8 ; 0x2538
        0x00000d96:    a064        d.      ADR      r0,{pc}+0x192 ; 0xf28
        0x00000d98:    f001fbce    ....    BL       __0printf$8 ; 0x2538
        0x00000d9c:    a072        r.      ADR      r0,{pc}+0x1cc ; 0xf68
        0x00000d9e:    f001fbcb    ....    BL       __0printf$8 ; 0x2538
        0x00000da2:    a081        ..      ADR      r0,{pc}+0x206 ; 0xfa8
        0x00000da4:    f001fbc8    ....    BL       __0printf$8 ; 0x2538
        0x00000da8:    4d8f        .M      LDR      r5,[pc,#572] ; [0xfe8] = 0x40150000
        0x00000daa:    2019        .       MOVS     r0,#0x19
        0x00000dac:    6268        hb      STR      r0,[r5,#0x24]
        0x00000dae:    2002        .       MOVS     r0,#2
        0x00000db0:    6328        (c      STR      r0,[r5,#0x30]
        0x00000db2:    2040        @       MOVS     r0,#0x40
        0x00000db4:    62a8        .b      STR      r0,[r5,#0x28]
        0x00000db6:    a08d        ..      ADR      r0,{pc}+0x236 ; 0xfec
        0x00000db8:    f001fbbe    ....    BL       __0printf$8 ; 0x2538
        0x00000dbc:    69e8        .i      LDR      r0,[r5,#0x1c]
        0x00000dbe:    07c0        ..      LSLS     r0,r0,#31
        0x00000dc0:    d005        ..      BEQ      0xdce ; IrDA_FunctionRxTest + 90
        0x00000dc2:    6828        (h      LDR      r0,[r5,#0]
        0x00000dc4:    b2c4        ..      UXTB     r4,r0
        0x00000dc6:    4621        !F      MOV      r1,r4
        0x00000dc8:    a08b        ..      ADR      r0,{pc}+0x230 ; 0xff8
        0x00000dca:    f001fbb5    ....    BL       __0printf$8 ; 0x2538
        0x00000dce:    2c30        0,      CMP      r4,#0x30
        0x00000dd0:    d1f4        ..      BNE      0xdbc ; IrDA_FunctionRxTest + 72
        0x00000dd2:    bd70        p.      POP      {r4-r6,pc}
    IrDA_FunctionTxTest
        0x00000dd4:    b570        p.      PUSH     {r4-r6,lr}
        0x00000dd6:    a023        #.      ADR      r0,{pc}+0x8e ; 0xe64
        0x00000dd8:    f001fbae    ....    BL       __0printf$8 ; 0x2538
        0x00000ddc:    a022        ".      ADR      r0,{pc}+0x8c ; 0xe68
        0x00000dde:    f001fbab    ....    BL       __0printf$8 ; 0x2538
        0x00000de2:    a089        ..      ADR      r0,{pc}+0x226 ; 0x1008
        0x00000de4:    f001fba8    ....    BL       __0printf$8 ; 0x2538
        0x00000de8:    a01f        ..      ADR      r0,{pc}+0x80 ; 0xe68
        0x00000dea:    f001fba5    ....    BL       __0printf$8 ; 0x2538
        0x00000dee:    a096        ..      ADR      r0,{pc}+0x25a ; 0x1048
        0x00000df0:    f001fba2    ....    BL       __0printf$8 ; 0x2538
        0x00000df4:    a0a4        ..      ADR      r0,{pc}+0x294 ; 0x1088
        0x00000df6:    f001fb9f    ....    BL       __0printf$8 ; 0x2538
        0x00000dfa:    a0b3        ..      ADR      r0,{pc}+0x2ce ; 0x10c8
        0x00000dfc:    f001fb9c    ....    BL       __0printf$8 ; 0x2538
        0x00000e00:    a069        i.      ADR      r0,{pc}+0x1a8 ; 0xfa8
        0x00000e02:    f001fb99    ....    BL       __0printf$8 ; 0x2538
        0x00000e06:    a0c0        ..      ADR      r0,{pc}+0x302 ; 0x1108
        0x00000e08:    f001fb96    ....    BL       __0printf$8 ; 0x2538
        0x00000e0c:    4d76        vM      LDR      r5,[pc,#472] ; [0xfe8] = 0x40150000
        0x00000e0e:    2019        .       MOVS     r0,#0x19
        0x00000e10:    6268        hb      STR      r0,[r5,#0x24]
        0x00000e12:    2002        .       MOVS     r0,#2
        0x00000e14:    6328        (c      STR      r0,[r5,#0x30]
        0x00000e16:    62a8        .b      STR      r0,[r5,#0x28]
        0x00000e18:    f001faf1    ....    BL       GetChar ; 0x23fe
        0x00000e1c:    4602        .F      MOV      r2,r0
        0x00000e1e:    4604        .F      MOV      r4,r0
        0x00000e20:    4611        .F      MOV      r1,r2
        0x00000e22:    a0c0        ..      ADR      r0,{pc}+0x302 ; 0x1124
        0x00000e24:    f001fb88    ....    BL       __0printf$8 ; 0x2538
        0x00000e28:    602c        ,`      STR      r4,[r5,#0]
        0x00000e2a:    2c30        0,      CMP      r4,#0x30
        0x00000e2c:    d1f4        ..      BNE      0xe18 ; IrDA_FunctionTxTest + 68
        0x00000e2e:    bd70        p.      POP      {r4-r6,pc}
    IrDA_FunctionTest
        0x00000e30:    b510        ..      PUSH     {r4,lr}
        0x00000e32:    a00d        ..      ADR      r0,{pc}+0x36 ; 0xe68
        0x00000e34:    f001fb80    ....    BL       __0printf$8 ; 0x2538
        0x00000e38:    a0c1        ..      ADR      r0,{pc}+0x308 ; 0x1140
        0x00000e3a:    f001fb7d    ..}.    BL       __0printf$8 ; 0x2538
        0x00000e3e:    a00a        ..      ADR      r0,{pc}+0x2a ; 0xe68
        0x00000e40:    f001fb7a    ..z.    BL       __0printf$8 ; 0x2538
        0x00000e44:    a0ce        ..      ADR      r0,{pc}+0x33c ; 0x1180
        0x00000e46:    f001fb77    ..w.    BL       __0printf$8 ; 0x2538
        0x00000e4a:    a0dd        ..      ADR      r0,{pc}+0x376 ; 0x11c0
        0x00000e4c:    f001fb74    ..t.    BL       __0printf$8 ; 0x2538
        0x00000e50:    a0eb        ..      ADR      r0,{pc}+0x3b0 ; 0x1200
        0x00000e52:    f001fb71    ..q.    BL       __0printf$8 ; 0x2538
        0x00000e56:    a0da        ..      ADR      r0,{pc}+0x36a ; 0x11c0
        0x00000e58:    f001fb6e    ..n.    BL       __0printf$8 ; 0x2538
        0x00000e5c:    a0f8        ..      ADR      r0,{pc}+0x3e4 ; 0x1240
        0x00000e5e:    f001fb6b    ..k.    BL       __0printf$8 ; 0x2538
        0x00000e62:    e20d        ..      B        0x1280 ; IrDA_FunctionTest + 1104
    $d
        0x00000e64:    00000a0a    ....    DCD    2570
        0x00000e68:    2d2d2d2b    +---    DCD    757935403
        0x00000e6c:    2d2d2d2d    ----    DCD    757935405
        0x00000e70:    2d2d2d2d    ----    DCD    757935405
        0x00000e74:    2d2d2d2d    ----    DCD    757935405
        0x00000e78:    2d2d2d2d    ----    DCD    757935405
        0x00000e7c:    2d2d2d2d    ----    DCD    757935405
        0x00000e80:    2d2d2d2d    ----    DCD    757935405
        0x00000e84:    2d2d2d2d    ----    DCD    757935405
        0x00000e88:    2d2d2d2d    ----    DCD    757935405
        0x00000e8c:    2d2d2d2d    ----    DCD    757935405
        0x00000e90:    2d2d2d2d    ----    DCD    757935405
        0x00000e94:    2d2d2d2d    ----    DCD    757935405
        0x00000e98:    2d2d2d2d    ----    DCD    757935405
        0x00000e9c:    2d2d2d2d    ----    DCD    757935405
        0x00000ea0:    2d2d2d2d    ----    DCD    757935405
        0x00000ea4:    00000a2b    +...    DCD    2603
        0x00000ea8:    2020207c    |       DCD    538976380
        0x00000eac:    72492020      Ir    DCD    1917394976
        0x00000eb0:    46204144    DA F    DCD    1176518980
        0x00000eb4:    74636e75    unct    DCD    1952673397
        0x00000eb8:    206e6f69    ion     DCD    544108393
        0x00000ebc:    4d207852    Rx M    DCD    1293973586
        0x00000ec0:    2065646f    ode     DCD    543515759
        0x00000ec4:    74736554    Test    DCD    1953719636
        0x00000ec8:    20202020            DCD    538976288
        0x00000ecc:    20202020            DCD    538976288
        0x00000ed0:    20202020            DCD    538976288
        0x00000ed4:    20202020            DCD    538976288
        0x00000ed8:    20202020            DCD    538976288
        0x00000edc:    20202020            DCD    538976288
        0x00000ee0:    20202020            DCD    538976288
        0x00000ee4:    00000a7c    |...    DCD    2684
        0x00000ee8:    2931207c    | 1)    DCD    691085436
        0x00000eec:    6f50202e    . Po    DCD    1867522094
        0x00000ef0:    6e696c6c    llin    DCD    1852402796
        0x00000ef4:    44522067    g RD    DCD    1146232935
        0x00000ef8:    6c465f41    A_Fl    DCD    1816551233
        0x00000efc:    74206761    ag t    DCD    1948280673
        0x00000f00:    6863206f    o ch    DCD    1751326831
        0x00000f04:    206b6365    eck     DCD    543908709
        0x00000f08:    61746164    data    DCD    1635017060
        0x00000f0c:    706e6920     inp    DCD    1886284064
        0x00000f10:    74207475    ut t    DCD    1948284021
        0x00000f14:    67756f68    houg    DCD    1735749480
        0x00000f18:    41552068    h UA    DCD    1096097896
        0x00000f1c:    20315452    RT1     DCD    540103762
        0x00000f20:    20202020            DCD    538976288
        0x00000f24:    00000a7c    |...    DCD    2684
        0x00000f28:    2932207c    | 2)    DCD    691150972
        0x00000f2c:    6649202e    . If    DCD    1716068398
        0x00000f30:    63657220     rec    DCD    1667592736
        0x00000f34:    65766965    eive    DCD    1702259045
        0x00000f38:    61642064    d da    DCD    1633951844
        0x00000f3c:    69206174    ta i    DCD    1763729780
        0x00000f40:    30272073    s '0    DCD    807870579
        0x00000f44:    74202c27    ', t    DCD    1948265511
        0x00000f48:    70206568    he p    DCD    1881171304
        0x00000f4c:    72676f72    rogr    DCD    1919381362
        0x00000f50:    77206d61    am w    DCD    1998613857
        0x00000f54:    206c6c69    ill     DCD    543976553
        0x00000f58:    74697865    exit    DCD    1953069157
        0x00000f5c:    2020202e    .       DCD    538976302
        0x00000f60:    20202020            DCD    538976288
        0x00000f64:    00000a7c    |...    DCD    2684
        0x00000f68:    2020207c    |       DCD    538976380
        0x00000f6c:    744f2020      Ot    DCD    1951342624
        0x00000f70:    77726568    herw    DCD    2003985768
        0x00000f74:    2c657369    ise,    DCD    744846185
        0x00000f78:    69727020     pri    DCD    1769107488
        0x00000f7c:    7220746e    nt r    DCD    1914729582
        0x00000f80:    69656365    ecei    DCD    1768252261
        0x00000f84:    20646576    ved     DCD    543450486
        0x00000f88:    61746164    data    DCD    1635017060
        0x00000f8c:    206e6f20     on     DCD    544108320
        0x00000f90:    6d726574    term    DCD    1836213620
        0x00000f94:    6c616e69    inal    DCD    1818324585
        0x00000f98:    20202020            DCD    538976288
        0x00000f9c:    20202020            DCD    538976288
        0x00000fa0:    20202020            DCD    538976288
        0x00000fa4:    00000a7c    |...    DCD    2684
        0x00000fa8:    2d2d2d2b    +---    DCD    757935403
        0x00000fac:    2d2d2d2d    ----    DCD    757935405
        0x00000fb0:    2d2d2d2d    ----    DCD    757935405
        0x00000fb4:    2d2d2d2d    ----    DCD    757935405
        0x00000fb8:    2d2d2d2d    ----    DCD    757935405
        0x00000fbc:    2d2d2d2d    ----    DCD    757935405
        0x00000fc0:    2d2d2d2d    ----    DCD    757935405
        0x00000fc4:    2d2d2d2d    ----    DCD    757935405
        0x00000fc8:    2d2d2d2d    ----    DCD    757935405
        0x00000fcc:    2d2d2d2d    ----    DCD    757935405
        0x00000fd0:    2d2d2d2d    ----    DCD    757935405
        0x00000fd4:    2d2d2d2d    ----    DCD    757935405
        0x00000fd8:    2d2d2d2d    ----    DCD    757935405
        0x00000fdc:    2d2d2d2d    ----    DCD    757935405
        0x00000fe0:    2d2d2d2d    ----    DCD    757935405
        0x00000fe4:    000a0a2b    +...    DCD    657963
        0x00000fe8:    40150000    ...@    DCD    1075118080
        0x00000fec:    74696157    Wait    DCD    1953063255
        0x00000ff0:    2e676e69    ing.    DCD    778530409
        0x00000ff4:    000a2e2e    ....    DCD    667182
        0x00000ff8:    49202020       I    DCD    1226842144
        0x00000ffc:    7475706e    nput    DCD    1953853550
        0x00001000:    6325203a    : %c    DCD    1663377466
        0x00001004:    00000a20     ...    DCD    2592
        0x00001008:    2020207c    |       DCD    538976380
        0x0000100c:    72492020      Ir    DCD    1917394976
        0x00001010:    46204144    DA F    DCD    1176518980
        0x00001014:    74636e75    unct    DCD    1952673397
        0x00001018:    206e6f69    ion     DCD    544108393
        0x0000101c:    4d207854    Tx M    DCD    1293973588
        0x00001020:    2065646f    ode     DCD    543515759
        0x00001024:    74736554    Test    DCD    1953719636
        0x00001028:    20202020            DCD    538976288
        0x0000102c:    20202020            DCD    538976288
        0x00001030:    20202020            DCD    538976288
        0x00001034:    20202020            DCD    538976288
        0x00001038:    20202020            DCD    538976288
        0x0000103c:    20202020            DCD    538976288
        0x00001040:    20202020            DCD    538976288
        0x00001044:    00000a7c    |...    DCD    2684
        0x00001048:    2931207c    | 1)    DCD    691085436
        0x0000104c:    6e49202e    . In    DCD    1850286126
        0x00001050:    20747570    put     DCD    544503152
        0x00001054:    72616863    char    DCD    1918986339
        0x00001058:    20796220     by     DCD    544825888
        0x0000105c:    54524155    UART    DCD    1414676821
        0x00001060:    65742030    0 te    DCD    1702109232
        0x00001064:    6e696d72    rmin    DCD    1852403058
        0x00001068:    202e6c61    al.     DCD    539913313
        0x0000106c:    20202020            DCD    538976288
        0x00001070:    20202020            DCD    538976288
        0x00001074:    20202020            DCD    538976288
        0x00001078:    20202020            DCD    538976288
        0x0000107c:    20202020            DCD    538976288
        0x00001080:    20202020            DCD    538976288
        0x00001084:    00000a7c    |...    DCD    2684
        0x00001088:    2932207c    | 2)    DCD    691150972
        0x0000108c:    4155202e    . UA    DCD    1096097838
        0x00001090:    20315452    RT1     DCD    540103762
        0x00001094:    6c6c6977    will    DCD    1819044215
        0x00001098:    6e657320     sen    DCD    1852142368
        0x0000109c:    20612064    d a     DCD    543236196
        0x000010a0:    72616863    char    DCD    1918986339
        0x000010a4:    63636120     acc    DCD    1667457312
        0x000010a8:    6964726f    ordi    DCD    1768190575
        0x000010ac:    7420676e    ng t    DCD    1948280686
        0x000010b0:    7473206f    o st    DCD    1953701999
        0x000010b4:    31207065    ep 1    DCD    824209509
        0x000010b8:    2020202e    .       DCD    538976302
        0x000010bc:    20202020            DCD    538976288
        0x000010c0:    20202020            DCD    538976288
        0x000010c4:    00000a7c    |...    DCD    2684
        0x000010c8:    2933207c    | 3)    DCD    691216508
        0x000010cc:    6552202e    . Re    DCD    1699881006
        0x000010d0:    6e727574    turn    DCD    1852994932
        0x000010d4:    65747320     ste    DCD    1702130464
        0x000010d8:    2e312070    p 1.    DCD    774971504
        0x000010dc:    72502820     (Pr    DCD    1917855776
        0x000010e0:    20737365    ess     DCD    544437093
        0x000010e4:    20273027    '0'     DCD    539439143
        0x000010e8:    65206f74    to e    DCD    1696624500
        0x000010ec:    29746978    xit)    DCD    695495032
        0x000010f0:    20202020            DCD    538976288
        0x000010f4:    20202020            DCD    538976288
        0x000010f8:    20202020            DCD    538976288
        0x000010fc:    20202020            DCD    538976288
        0x00001100:    20202020            DCD    538976288
        0x00001104:    00000a7c    |...    DCD    2684
        0x00001108:    4452490a    .IRD    DCD    1146243338
        0x0000110c:    61532041    A Sa    DCD    1632837697
        0x00001110:    656c706d    mple    DCD    1701605485
        0x00001114:    646f4320     Cod    DCD    1685013280
        0x00001118:    74532065    e St    DCD    1951604837
        0x0000111c:    2e747261    art.    DCD    779383393
        0x00001120:    00000a20     ...    DCD    2592
        0x00001124:    49202020       I    DCD    1226842144
        0x00001128:    7475706e    nput    DCD    1953853550
        0x0000112c:    6325203a    : %c    DCD    1663377466
        0x00001130:    53202c20     , S    DCD    1394617376
        0x00001134:    20646e65    end     DCD    543452773
        0x00001138:    6f206325    %c o    DCD    1864393509
        0x0000113c:    000a7475    ut..    DCD    685173
        0x00001140:    2020207c    |       DCD    538976380
        0x00001144:    69502020      Pi    DCD    1766858784
        0x00001148:    6f43206e    n Co    DCD    1866670190
        0x0000114c:    6769666e    nfig    DCD    1734960750
        0x00001150:    20657275    ure     DCD    543519349
        0x00001154:    20202020            DCD    538976288
        0x00001158:    20202020            DCD    538976288
        0x0000115c:    20202020            DCD    538976288
        0x00001160:    20202020            DCD    538976288
        0x00001164:    20202020            DCD    538976288
        0x00001168:    20202020            DCD    538976288
        0x0000116c:    20202020            DCD    538976288
        0x00001170:    20202020            DCD    538976288
        0x00001174:    20202020            DCD    538976288
        0x00001178:    20202020            DCD    538976288
        0x0000117c:    00000a7c    |...    DCD    2684
        0x00001180:    5f20207c    |  _    DCD    1595940988
        0x00001184:    5f5f5f5f    ____    DCD    1600085855
        0x00001188:    2020205f    _       DCD    538976351
        0x0000118c:    20202020            DCD    538976288
        0x00001190:    20202020            DCD    538976288
        0x00001194:    20202020            DCD    538976288
        0x00001198:    20202020            DCD    538976288
        0x0000119c:    20202020            DCD    538976288
        0x000011a0:    20202020            DCD    538976288
        0x000011a4:    20202020            DCD    538976288
        0x000011a8:    20202020            DCD    538976288
        0x000011ac:    5f202020       _    DCD    1595940896
        0x000011b0:    5f5f5f5f    ____    DCD    1600085855
        0x000011b4:    20205f5f    __      DCD    538992479
        0x000011b8:    20202020            DCD    538976288
        0x000011bc:    00000a7c    |...    DCD    2684
        0x000011c0:    207c207c    | |     DCD    545005692
        0x000011c4:    20202020            DCD    538976288
        0x000011c8:    20207c20     |      DCD    538999840
        0x000011cc:    20202020            DCD    538976288
        0x000011d0:    20202020            DCD    538976288
        0x000011d4:    20202020            DCD    538976288
        0x000011d8:    20202020            DCD    538976288
        0x000011dc:    20202020            DCD    538976288
        0x000011e0:    20202020            DCD    538976288
        0x000011e4:    20202020            DCD    538976288
        0x000011e8:    20202020            DCD    538976288
        0x000011ec:    207c2020      |     DCD    545005600
        0x000011f0:    20202020            DCD    538976288
        0x000011f4:    207c2020      |     DCD    545005600
        0x000011f8:    20202020            DCD    538976288
        0x000011fc:    00000a7c    |...    DCD    2684
        0x00001200:    4d7c207c    | |M    DCD    1299980412
        0x00001204:    65747361    aste    DCD    1702130529
        0x00001208:    2d2d7c72    r|--    DCD    757955698
        0x0000120c:    4458542d    -TXD    DCD    1146639405
        0x00001210:    69702831    1(pi    DCD    1768958001
        0x00001214:    2936346e    n46)    DCD    691418222
        0x00001218:    3d3d3c20     <==    DCD    1027423264
        0x0000121c:    203e3d3d    ==>     DCD    540949821
        0x00001220:    31445852    RXD1    DCD    826562642
        0x00001224:    6e697028    (pin    DCD    1852403752
        0x00001228:    2d293534    45)-    DCD    757675316
        0x0000122c:    537c2d2d    --|S    DCD    1400646957
        0x00001230:    6576616c    lave    DCD    1702257004
        0x00001234:    207c2020      |     DCD    545005600
        0x00001238:    20202020            DCD    538976288
        0x0000123c:    00000a7c    |...    DCD    2684
        0x00001240:    5f7c207c    | |_    DCD    1601970300
        0x00001244:    5f5f5f5f    ____    DCD    1600085855
        0x00001248:    20207c5f    _|      DCD    538999903
        0x0000124c:    20202020            DCD    538976288
        0x00001250:    20202020            DCD    538976288
        0x00001254:    20202020            DCD    538976288
        0x00001258:    20202020            DCD    538976288
        0x0000125c:    20202020            DCD    538976288
        0x00001260:    20202020            DCD    538976288
        0x00001264:    20202020            DCD    538976288
        0x00001268:    20202020            DCD    538976288
        0x0000126c:    5f7c2020      |_    DCD    1601970208
        0x00001270:    5f5f5f5f    ____    DCD    1600085855
        0x00001274:    207c5f5f    __|     DCD    545021791
        0x00001278:    20202020            DCD    538976288
        0x0000127c:    00000a7c    |...    DCD    2684
    $t
        0x00001280:    a01b        ..      ADR      r0,{pc}+0x70 ; 0x12f0
        0x00001282:    f001f959    ..Y.    BL       __0printf$8 ; 0x2538
        0x00001286:    482a        *H      LDR      r0,[pc,#168] ; [0x1330] = 0xe68
        0x00001288:    f001f956    ..V.    BL       __0printf$8 ; 0x2538
        0x0000128c:    a029        ).      ADR      r0,{pc}+0xa8 ; 0x1334
        0x0000128e:    f001f953    ..S.    BL       __0printf$8 ; 0x2538
        0x00001292:    4827        'H      LDR      r0,[pc,#156] ; [0x1330] = 0xe68
        0x00001294:    f001f950    ..P.    BL       __0printf$8 ; 0x2538
        0x00001298:    a027        '.      ADR      r0,{pc}+0xa0 ; 0x1338
        0x0000129a:    f001f94d    ..M.    BL       __0printf$8 ; 0x2538
        0x0000129e:    4824        $H      LDR      r0,[pc,#144] ; [0x1330] = 0xe68
        0x000012a0:    f001f94a    ..J.    BL       __0printf$8 ; 0x2538
        0x000012a4:    a034        4.      ADR      r0,{pc}+0xd4 ; 0x1378
        0x000012a6:    f001f947    ..G.    BL       __0printf$8 ; 0x2538
        0x000012aa:    a043        C.      ADR      r0,{pc}+0x10e ; 0x13b8
        0x000012ac:    f001f944    ..D.    BL       __0printf$8 ; 0x2538
        0x000012b0:    a051        Q.      ADR      r0,{pc}+0x148 ; 0x13f8
        0x000012b2:    f001f941    ..A.    BL       __0printf$8 ; 0x2538
        0x000012b6:    a060        `.      ADR      r0,{pc}+0x182 ; 0x1438
        0x000012b8:    f001f93e    ..>.    BL       __0printf$8 ; 0x2538
        0x000012bc:    a06e        n.      ADR      r0,{pc}+0x1bc ; 0x1478
        0x000012be:    f001f93b    ..;.    BL       __0printf$8 ; 0x2538
        0x000012c2:    a07d        }.      ADR      r0,{pc}+0x1f6 ; 0x14b8
        0x000012c4:    f001f938    ..8.    BL       __0printf$8 ; 0x2538
        0x000012c8:    a08b        ..      ADR      r0,{pc}+0x230 ; 0x14f8
        0x000012ca:    f001f935    ..5.    BL       __0printf$8 ; 0x2538
        0x000012ce:    489a        .H      LDR      r0,[pc,#616] ; [0x1538] = 0xfa8
        0x000012d0:    f001f932    ..2.    BL       __0printf$8 ; 0x2538
        0x000012d4:    f001f893    ....    BL       GetChar ; 0x23fe
        0x000012d8:    2830        0(      CMP      r0,#0x30
        0x000012da:    d005        ..      BEQ      0x12e8 ; IrDA_FunctionTest + 1208
        0x000012dc:    f7fffd4a    ..J.    BL       IrDA_FunctionRxTest ; 0xd74
        0x000012e0:    a096        ..      ADR      r0,{pc}+0x25c ; 0x153c
        0x000012e2:    f001f929    ..).    BL       __0printf$8 ; 0x2538
        0x000012e6:    bd10        ..      POP      {r4,pc}
        0x000012e8:    f7fffd74    ..t.    BL       IrDA_FunctionTxTest ; 0xdd4
        0x000012ec:    e7f8        ..      B        0x12e0 ; IrDA_FunctionTest + 1200
    $d
        0x000012ee:    0000        ..      DCW    0
        0x000012f0:    2020207c    |       DCD    538976380
        0x000012f4:    20202020            DCD    538976288
        0x000012f8:    20202020            DCD    538976288
        0x000012fc:    20202020            DCD    538976288
        0x00001300:    20202020            DCD    538976288
        0x00001304:    20202020            DCD    538976288
        0x00001308:    20202020            DCD    538976288
        0x0000130c:    20202020            DCD    538976288
        0x00001310:    20202020            DCD    538976288
        0x00001314:    20202020            DCD    538976288
        0x00001318:    20202020            DCD    538976288
        0x0000131c:    20202020            DCD    538976288
        0x00001320:    20202020            DCD    538976288
        0x00001324:    20202020            DCD    538976288
        0x00001328:    20202020            DCD    538976288
        0x0000132c:    00000a7c    |...    DCD    2684
        0x00001330:    00000e68    h...    DCD    3688
        0x00001334:    00000a0a    ....    DCD    2570
        0x00001338:    2020207c    |       DCD    538976380
        0x0000133c:    72492020      Ir    DCD    1917394976
        0x00001340:    46204144    DA F    DCD    1176518980
        0x00001344:    74636e75    unct    DCD    1952673397
        0x00001348:    206e6f69    ion     DCD    544108393
        0x0000134c:    74736554    Test    DCD    1953719636
        0x00001350:    20202020            DCD    538976288
        0x00001354:    20202020            DCD    538976288
        0x00001358:    20202020            DCD    538976288
        0x0000135c:    20202020            DCD    538976288
        0x00001360:    20202020            DCD    538976288
        0x00001364:    20202020            DCD    538976288
        0x00001368:    20202020            DCD    538976288
        0x0000136c:    20202020            DCD    538976288
        0x00001370:    20202020            DCD    538976288
        0x00001374:    00000a7c    |...    DCD    2684
        0x00001378:    4420207c    |  D    DCD    1142956156
        0x0000137c:    72637365    escr    DCD    1919120229
        0x00001380:    69747069    ipti    DCD    1769238633
        0x00001384:    3a206e6f    on :    DCD    975203951
        0x00001388:    20202020            DCD    538976288
        0x0000138c:    20202020            DCD    538976288
        0x00001390:    20202020            DCD    538976288
        0x00001394:    20202020            DCD    538976288
        0x00001398:    20202020            DCD    538976288
        0x0000139c:    20202020            DCD    538976288
        0x000013a0:    20202020            DCD    538976288
        0x000013a4:    20202020            DCD    538976288
        0x000013a8:    20202020            DCD    538976288
        0x000013ac:    20202020            DCD    538976288
        0x000013b0:    20202020            DCD    538976288
        0x000013b4:    00000a7c    |...    DCD    2684
        0x000013b8:    2020207c    |       DCD    538976380
        0x000013bc:    65685420     The    DCD    1701336096
        0x000013c0:    6d617320     sam    DCD    1835103008
        0x000013c4:    20656c70    ple     DCD    543517808
        0x000013c8:    65646f63    code    DCD    1701080931
        0x000013cc:    65656e20     nee    DCD    1701146144
        0x000013d0:    74207364    ds t    DCD    1948283748
        0x000013d4:    62206f77    wo b    DCD    1646292855
        0x000013d8:    6472616f    oard    DCD    1685217647
        0x000013dc:    4f202e73    s. O    DCD    1327509107
        0x000013e0:    6920656e    ne i    DCD    1763730798
        0x000013e4:    614d2073    s Ma    DCD    1632444531
        0x000013e8:    72657473    ster    DCD    1919251571
        0x000013ec:    646e6120     and    DCD    1684955424
        0x000013f0:    20202020            DCD    538976288
        0x000013f4:    00000a7c    |...    DCD    2684
        0x000013f8:    2020207c    |       DCD    538976380
        0x000013fc:    65687420     the    DCD    1701344288
        0x00001400:    68746f20     oth    DCD    1752461088
        0x00001404:    69207265    er i    DCD    1763734117
        0x00001408:    6c732073    s sl    DCD    1819484275
        0x0000140c:    2e657661    ave.    DCD    778401377
        0x00001410:    614d2020      Ma    DCD    1632444448
        0x00001414:    72657473    ster    DCD    1919251571
        0x00001418:    6c697720     wil    DCD    1818851104
        0x0000141c:    6573206c    l se    DCD    1702043756
        0x00001420:    6420646e    nd d    DCD    1679844462
        0x00001424:    20617461    ata     DCD    543257697
        0x00001428:    65736162    base    DCD    1702060386
        0x0000142c:    6e6f2064    d on    DCD    1852776548
        0x00001430:    20202020            DCD    538976288
        0x00001434:    00000a7c    |...    DCD    2684
        0x00001438:    2020207c    |       DCD    538976380
        0x0000143c:    72657420     ter    DCD    1919251488
        0x00001440:    616e696d    mina    DCD    1634625901
        0x00001444:    6e69206c    l in    DCD    1852383340
        0x00001448:    20747570    put     DCD    544503152
        0x0000144c:    20646e61    and     DCD    543452769
        0x00001450:    76616c53    Slav    DCD    1986096211
        0x00001454:    69772065    e wi    DCD    1769414757
        0x00001458:    70206c6c    ll p    DCD    1881173100
        0x0000145c:    746e6972    rint    DCD    1953393010
        0x00001460:    65722066    f re    DCD    1701978214
        0x00001464:    69766563    cevi    DCD    1769366883
        0x00001468:    64206465    ed d    DCD    1679844453
        0x0000146c:    20617461    ata     DCD    543257697
        0x00001470:    20206e6f    on      DCD    538996335
        0x00001474:    00000a7c    |...    DCD    2684
        0x00001478:    2020207c    |       DCD    538976380
        0x0000147c:    72657420     ter    DCD    1919251488
        0x00001480:    616e696d    mina    DCD    1634625901
        0x00001484:    6373206c    l sc    DCD    1668489324
        0x00001488:    6e656572    reen    DCD    1852138866
        0x0000148c:    2020202e    .       DCD    538976302
        0x00001490:    20202020            DCD    538976288
        0x00001494:    20202020            DCD    538976288
        0x00001498:    20202020            DCD    538976288
        0x0000149c:    20202020            DCD    538976288
        0x000014a0:    20202020            DCD    538976288
        0x000014a4:    20202020            DCD    538976288
        0x000014a8:    20202020            DCD    538976288
        0x000014ac:    20202020            DCD    538976288
        0x000014b0:    20202020            DCD    538976288
        0x000014b4:    00000a7c    |...    DCD    2684
        0x000014b8:    5020207c    |  P    DCD    1344282748
        0x000014bc:    7361656c    leas    DCD    1935762796
        0x000014c0:    65732065    e se    DCD    1702043749
        0x000014c4:    7463656c    lect    DCD    1952671084
        0x000014c8:    73614d20     Mas    DCD    1935756576
        0x000014cc:    20726574    ter     DCD    544367988
        0x000014d0:    5320726f    or S    DCD    1394635375
        0x000014d4:    6576616c    lave    DCD    1702257004
        0x000014d8:    73657420     tes    DCD    1936028704
        0x000014dc:    20202074    t       DCD    538976372
        0x000014e0:    20202020            DCD    538976288
        0x000014e4:    20202020            DCD    538976288
        0x000014e8:    20202020            DCD    538976288
        0x000014ec:    20202020            DCD    538976288
        0x000014f0:    20202020            DCD    538976288
        0x000014f4:    00000a7c    |...    DCD    2684
        0x000014f8:    5b20207c    |  [    DCD    1528832124
        0x000014fc:    4d205d30    0] M    DCD    1293966640
        0x00001500:    65747361    aste    DCD    1702130529
        0x00001504:    20202072    r       DCD    538976370
        0x00001508:    5d315b20     [1]    DCD    1563515680
        0x0000150c:    616c5320     Sla    DCD    1634489120
        0x00001510:    20206576    ve      DCD    538994038
        0x00001514:    20202020            DCD    538976288
        0x00001518:    20202020            DCD    538976288
        0x0000151c:    20202020            DCD    538976288
        0x00001520:    20202020            DCD    538976288
        0x00001524:    20202020            DCD    538976288
        0x00001528:    20202020            DCD    538976288
        0x0000152c:    20202020            DCD    538976288
        0x00001530:    20202020            DCD    538976288
        0x00001534:    00000a7c    |...    DCD    2684
        0x00001538:    00000fa8    ....    DCD    4008
        0x0000153c:    4472490a    .IrD    DCD    1148340490
        0x00001540:    61532041    A Sa    DCD    1632837697
        0x00001544:    656c706d    mple    DCD    1701605485
        0x00001548:    646f4320     Cod    DCD    1685013280
        0x0000154c:    6e452065    e En    DCD    1850024037
        0x00001550:    000a2e64    d...    DCD    667236
    $t
    .text
    LIN_TestItem
        0x00001554:    b510        ..      PUSH     {r4,lr}
        0x00001556:    a087        ..      ADR      r0,{pc}+0x21e ; 0x1774
        0x00001558:    f000ffee    ....    BL       __0printf$8 ; 0x2538
        0x0000155c:    a086        ..      ADR      r0,{pc}+0x21c ; 0x1778
        0x0000155e:    f000ffeb    ....    BL       __0printf$8 ; 0x2538
        0x00001562:    a095        ..      ADR      r0,{pc}+0x256 ; 0x17b8
        0x00001564:    f000ffe8    ....    BL       __0printf$8 ; 0x2538
        0x00001568:    a083        ..      ADR      r0,{pc}+0x210 ; 0x1778
        0x0000156a:    f000ffe5    ....    BL       __0printf$8 ; 0x2538
        0x0000156e:    a0a2        ..      ADR      r0,{pc}+0x28a ; 0x17f8
        0x00001570:    f000ffe2    ....    BL       __0printf$8 ; 0x2538
        0x00001574:    a0b0        ..      ADR      r0,{pc}+0x2c4 ; 0x1838
        0x00001576:    f000ffdf    ....    BL       __0printf$8 ; 0x2538
        0x0000157a:    a0bf        ..      ADR      r0,{pc}+0x2fe ; 0x1878
        0x0000157c:    f000ffdc    ....    BL       __0printf$8 ; 0x2538
        0x00001580:    a0cd        ..      ADR      r0,{pc}+0x338 ; 0x18b8
        0x00001582:    f000ffd9    ....    BL       __0printf$8 ; 0x2538
        0x00001586:    a0dc        ..      ADR      r0,{pc}+0x372 ; 0x18f8
        0x00001588:    f000ffd6    ....    BL       __0printf$8 ; 0x2538
        0x0000158c:    a07a        z.      ADR      r0,{pc}+0x1ec ; 0x1778
        0x0000158e:    f000ffd3    ....    BL       __0printf$8 ; 0x2538
        0x00001592:    a0e9        ..      ADR      r0,{pc}+0x3a6 ; 0x1938
        0x00001594:    f000ffd0    ....    BL       __0printf$8 ; 0x2538
        0x00001598:    a0f7        ..      ADR      r0,{pc}+0x3e0 ; 0x1978
        0x0000159a:    f000ffcd    ....    BL       __0printf$8 ; 0x2538
        0x0000159e:    bd10        ..      POP      {r4,pc}
    GetCheckSumValue
        0x000015a0:    2200        ."      MOVS     r2,#0
        0x000015a2:    e005        ..      B        0x15b0 ; GetCheckSumValue + 16
        0x000015a4:    5c43        C\      LDRB     r3,[r0,r1]
        0x000015a6:    189a        ..      ADDS     r2,r3,r2
        0x000015a8:    2aff        .*      CMP      r2,#0xff
        0x000015aa:    d900        ..      BLS      0x15ae ; GetCheckSumValue + 14
        0x000015ac:    3aff        .:      SUBS     r2,r2,#0xff
        0x000015ae:    1c49        I.      ADDS     r1,r1,#1
        0x000015b0:    2909        .)      CMP      r1,#9
        0x000015b2:    d9f7        ..      BLS      0x15a4 ; GetCheckSumValue + 4
        0x000015b4:    20ff        .       MOVS     r0,#0xff
        0x000015b6:    1a80        ..      SUBS     r0,r0,r2
        0x000015b8:    4770        pG      BX       lr
    LIN_SendResponse
        0x000015ba:    b5f8        ..      PUSH     {r3-r7,lr}
        0x000015bc:    460f        .F      MOV      r7,r1
        0x000015be:    4cfe        .L      LDR      r4,[pc,#1016] ; [0x19b8] = 0x20000030
        0x000015c0:    4dfe        .M      LDR      r5,[pc,#1016] ; [0x19bc] = 0x2000003c
        0x000015c2:    2100        .!      MOVS     r1,#0
        0x000015c4:    008a        ..      LSLS     r2,r1,#2
        0x000015c6:    5cbb        .\      LDRB     r3,[r7,r2]
        0x000015c8:    6822        "h      LDR      r2,[r4,#0]
        0x000015ca:    18ae        ..      ADDS     r6,r5,r2
        0x000015cc:    1c52        R.      ADDS     r2,r2,#1
        0x000015ce:    6022        "`      STR      r2,[r4,#0]
        0x000015d0:    1c49        I.      ADDS     r1,r1,#1
        0x000015d2:    7033        3p      STRB     r3,[r6,#0]
        0x000015d4:    2908        .)      CMP      r1,#8
        0x000015d6:    dbf5        ..      BLT      0x15c4 ; LIN_SendResponse + 10
        0x000015d8:    4601        .F      MOV      r1,r0
        0x000015da:    48f8        .H      LDR      r0,[pc,#992] ; [0x19bc] = 0x2000003c
        0x000015dc:    f7ffffe0    ....    BL       GetCheckSumValue ; 0x15a0
        0x000015e0:    6822        "h      LDR      r2,[r4,#0]
        0x000015e2:    18ab        ..      ADDS     r3,r5,r2
        0x000015e4:    1c52        R.      ADDS     r2,r2,#1
        0x000015e6:    6022        "`      STR      r2,[r4,#0]
        0x000015e8:    7018        .p      STRB     r0,[r3,#0]
        0x000015ea:    2209        ."      MOVS     r2,#9
        0x000015ec:    1ca9        ..      ADDS     r1,r5,#2
        0x000015ee:    48f4        .H      LDR      r0,[pc,#976] ; [0x19c0] = 0x40150000
        0x000015f0:    f000ff8b    ....    BL       UART_Write ; 0x250a
        0x000015f4:    bdf8        ..      POP      {r3-r7,pc}
    GetParityValue
        0x000015f6:    b530        0.      PUSH     {r4,r5,lr}
        0x000015f8:    b086        ..      SUB      sp,sp,#0x18
        0x000015fa:    2100        .!      MOVS     r1,#0
        0x000015fc:    466b        kF      MOV      r3,sp
        0x000015fe:    2401        .$      MOVS     r4,#1
        0x00001600:    4622        "F      MOV      r2,r4
        0x00001602:    408a        .@      LSLS     r2,r2,r1
        0x00001604:    4002        .@      ANDS     r2,r2,r0
        0x00001606:    40ca        .@      LSRS     r2,r2,r1
        0x00001608:    008d        ..      LSLS     r5,r1,#2
        0x0000160a:    1c49        I.      ADDS     r1,r1,#1
        0x0000160c:    515a        ZQ      STR      r2,[r3,r5]
        0x0000160e:    2906        .)      CMP      r1,#6
        0x00001610:    d3f6        ..      BCC      0x1600 ; GetParityValue + 10
        0x00001612:    9a01        ..      LDR      r2,[sp,#4]
        0x00001614:    9900        ..      LDR      r1,[sp,#0]
        0x00001616:    9b03        ..      LDR      r3,[sp,#0xc]
        0x00001618:    1889        ..      ADDS     r1,r1,r2
        0x0000161a:    9a02        ..      LDR      r2,[sp,#8]
        0x0000161c:    1889        ..      ADDS     r1,r1,r2
        0x0000161e:    9a04        ..      LDR      r2,[sp,#0x10]
        0x00001620:    4051        Q@      EORS     r1,r1,r2
        0x00001622:    9a01        ..      LDR      r2,[sp,#4]
        0x00001624:    07c9        ..      LSLS     r1,r1,#31
        0x00001626:    18d2        ..      ADDS     r2,r2,r3
        0x00001628:    9b04        ..      LDR      r3,[sp,#0x10]
        0x0000162a:    0e49        I.      LSRS     r1,r1,#25
        0x0000162c:    18d2        ..      ADDS     r2,r2,r3
        0x0000162e:    9b05        ..      LDR      r3,[sp,#0x14]
        0x00001630:    1808        ..      ADDS     r0,r1,r0
        0x00001632:    405a        Z@      EORS     r2,r2,r3
        0x00001634:    07d2        ..      LSLS     r2,r2,#31
        0x00001636:    17d2        ..      ASRS     r2,r2,#31
        0x00001638:    1c52        R.      ADDS     r2,r2,#1
        0x0000163a:    01d1        ..      LSLS     r1,r2,#7
        0x0000163c:    1840        @.      ADDS     r0,r0,r1
        0x0000163e:    b2c0        ..      UXTB     r0,r0
        0x00001640:    b006        ..      ADD      sp,sp,#0x18
        0x00001642:    bd30        0.      POP      {r4,r5,pc}
    LIN_SendHeader
        0x00001644:    b570        p.      PUSH     {r4-r6,lr}
        0x00001646:    4602        .F      MOV      r2,r0
        0x00001648:    4cdb        .L      LDR      r4,[pc,#876] ; [0x19b8] = 0x20000030
        0x0000164a:    2000        .       MOVS     r0,#0
        0x0000164c:    6020         `      STR      r0,[r4,#0]
        0x0000164e:    4ddc        .M      LDR      r5,[pc,#880] ; [0x19c0] = 0x40150000
        0x00001650:    2001        .       MOVS     r0,#1
        0x00001652:    6328        (c      STR      r0,[r5,#0x30]
        0x00001654:    208b        .       MOVS     r0,#0x8b
        0x00001656:    62e8        .b      STR      r0,[r5,#0x2c]
        0x00001658:    6820         h      LDR      r0,[r4,#0]
        0x0000165a:    2155        U!      MOVS     r1,#0x55
        0x0000165c:    4ed7        .N      LDR      r6,[pc,#860] ; [0x19bc] = 0x2000003c
        0x0000165e:    1833        3.      ADDS     r3,r6,r0
        0x00001660:    1c40        @.      ADDS     r0,r0,#1
        0x00001662:    6020         `      STR      r0,[r4,#0]
        0x00001664:    7019        .p      STRB     r1,[r3,#0]
        0x00001666:    4610        .F      MOV      r0,r2
        0x00001668:    f7ffffc5    ....    BL       GetParityValue ; 0x15f6
        0x0000166c:    6821        !h      LDR      r1,[r4,#0]
        0x0000166e:    1872        r.      ADDS     r2,r6,r1
        0x00001670:    1c49        I.      ADDS     r1,r1,#1
        0x00001672:    6021        !`      STR      r1,[r4,#0]
        0x00001674:    7010        .p      STRB     r0,[r2,#0]
        0x00001676:    2202        ."      MOVS     r2,#2
        0x00001678:    4631        1F      MOV      r1,r6
        0x0000167a:    4628        (F      MOV      r0,r5
        0x0000167c:    f000ff45    ..E.    BL       UART_Write ; 0x250a
        0x00001680:    bd70        p.      POP      {r4-r6,pc}
    LIN_MasterTest
        0x00001682:    b530        0.      PUSH     {r4,r5,lr}
        0x00001684:    b089        ..      SUB      sp,sp,#0x24
        0x00001686:    460d        .F      MOV      r5,r1
        0x00001688:    4604        .F      MOV      r4,r0
        0x0000168a:    2220         "      MOVS     r2,#0x20
        0x0000168c:    49cd        .I      LDR      r1,[pc,#820] ; [0x19c4] = 0x2a14
        0x0000168e:    4668        hF      MOV      r0,sp
        0x00001690:    f000fec6    ....    BL       __aeabi_memcpy ; 0x2420
        0x00001694:    4620         F      MOV      r0,r4
        0x00001696:    f7ffffd5    ....    BL       LIN_SendHeader ; 0x1644
        0x0000169a:    4669        iF      MOV      r1,sp
        0x0000169c:    4628        (F      MOV      r0,r5
        0x0000169e:    f7ffff8c    ....    BL       LIN_SendResponse ; 0x15ba
        0x000016a2:    b009        ..      ADD      sp,sp,#0x24
        0x000016a4:    bd30        0.      POP      {r4,r5,pc}
    LIN_FunctionTest
        0x000016a6:    b570        p.      PUSH     {r4-r6,lr}
        0x000016a8:    4dc5        .M      LDR      r5,[pc,#788] ; [0x19c0] = 0x40150000
        0x000016aa:    48c7        .H      LDR      r0,[pc,#796] ; [0x19c8] = 0x300009c2
        0x000016ac:    6268        hb      STR      r0,[r5,#0x24]
        0x000016ae:    2001        .       MOVS     r0,#1
        0x000016b0:    6328        (c      STR      r0,[r5,#0x30]
        0x000016b2:    f7ffff4f    ..O.    BL       LIN_TestItem ; 0x1554
        0x000016b6:    48c5        .H      LDR      r0,[pc,#788] ; [0x19cc] = 0x20000038
        0x000016b8:    f001f9a8    ....    BL       getc ; 0x2a0c
        0x000016bc:    4604        .F      MOV      r4,r0
        0x000016be:    4601        .F      MOV      r1,r0
        0x000016c0:    a0c3        ..      ADR      r0,{pc}+0x310 ; 0x19d0
        0x000016c2:    f000ff39    ..9.    BL       __0printf$8 ; 0x2538
        0x000016c6:    4620         F      MOV      r0,r4
        0x000016c8:    2c31        1,      CMP      r4,#0x31
        0x000016ca:    d00b        ..      BEQ      0x16e4 ; LIN_FunctionTest + 62
        0x000016cc:    2832        2(      CMP      r0,#0x32
        0x000016ce:    d00d        ..      BEQ      0x16ec ; LIN_FunctionTest + 70
        0x000016d0:    2c33        3,      CMP      r4,#0x33
        0x000016d2:    d00e        ..      BEQ      0x16f2 ; LIN_FunctionTest + 76
        0x000016d4:    281b        .(      CMP      r0,#0x1b
        0x000016d6:    d1ec        ..      BNE      0x16b2 ; LIN_FunctionTest + 12
        0x000016d8:    2000        .       MOVS     r0,#0
        0x000016da:    6328        (c      STR      r0,[r5,#0x30]
        0x000016dc:    a0bd        ..      ADR      r0,{pc}+0x2f8 ; 0x19d4
        0x000016de:    f000ff2b    ..+.    BL       __0printf$8 ; 0x2538
        0x000016e2:    bd70        p.      POP      {r4-r6,pc}
        0x000016e4:    2030        0       MOVS     r0,#0x30
        0x000016e6:    f7ffffad    ....    BL       LIN_SendHeader ; 0x1644
        0x000016ea:    e7e2        ..      B        0x16b2 ; LIN_FunctionTest + 12
        0x000016ec:    2102        .!      MOVS     r1,#2
        0x000016ee:    2035        5       MOVS     r0,#0x35
        0x000016f0:    e001        ..      B        0x16f6 ; LIN_FunctionTest + 80
        0x000016f2:    2101        .!      MOVS     r1,#1
        0x000016f4:    2012        .       MOVS     r0,#0x12
        0x000016f6:    f7ffffc4    ....    BL       LIN_MasterTest ; 0x1682
        0x000016fa:    e7da        ..      B        0x16b2 ; LIN_FunctionTest + 12
    ComputeChksumValue
        0x000016fc:    b510        ..      PUSH     {r4,lr}
        0x000016fe:    2200        ."      MOVS     r2,#0
        0x00001700:    4613        .F      MOV      r3,r2
        0x00001702:    e005        ..      B        0x1710 ; ComputeChksumValue + 20
        0x00001704:    5cc4        .\      LDRB     r4,[r0,r3]
        0x00001706:    18a2        ..      ADDS     r2,r4,r2
        0x00001708:    2aff        .*      CMP      r2,#0xff
        0x0000170a:    d900        ..      BLS      0x170e ; ComputeChksumValue + 18
        0x0000170c:    3aff        .:      SUBS     r2,r2,#0xff
        0x0000170e:    1c5b        [.      ADDS     r3,r3,#1
        0x00001710:    428b        .B      CMP      r3,r1
        0x00001712:    d3f7        ..      BCC      0x1704 ; ComputeChksumValue + 8
        0x00001714:    20ff        .       MOVS     r0,#0xff
        0x00001716:    1a80        ..      SUBS     r0,r0,r2
        0x00001718:    b2c0        ..      UXTB     r0,r0
        0x0000171a:    bd10        ..      POP      {r4,pc}
    LIN_SendHeaderUsingLinCtlReg
        0x0000171c:    b570        p.      PUSH     {r4-r6,lr}
        0x0000171e:    4da6        .M      LDR      r5,[pc,#664] ; [0x19b8] = 0x20000030
        0x00001720:    2200        ."      MOVS     r2,#0
        0x00001722:    602a        *`      STR      r2,[r5,#0]
        0x00001724:    4ca6        .L      LDR      r4,[pc,#664] ; [0x19c0] = 0x40150000
        0x00001726:    2201        ."      MOVS     r2,#1
        0x00001728:    6322        "c      STR      r2,[r4,#0x30]
        0x0000172a:    05d3        ..      LSLS     r3,r2,#23
        0x0000172c:    0212        ..      LSLS     r2,r2,#8
        0x0000172e:    4299        .B      CMP      r1,r3
        0x00001730:    d10a        ..      BNE      0x1748 ; LIN_SendHeaderUsingLinCtlReg + 44
        0x00001732:    49ae        .I      LDR      r1,[pc,#696] ; [0x19ec] = 0x8b0200
        0x00001734:    0600        ..      LSLS     r0,r0,#24
        0x00001736:    1840        @.      ADDS     r0,r0,r1
        0x00001738:    6360        `c      STR      r0,[r4,#0x34]
        0x0000173a:    6b60        `k      LDR      r0,[r4,#0x34]
        0x0000173c:    4310        .C      ORRS     r0,r0,r2
        0x0000173e:    6360        `c      STR      r0,[r4,#0x34]
        0x00001740:    6b60        `k      LDR      r0,[r4,#0x34]
        0x00001742:    05c0        ..      LSLS     r0,r0,#23
        0x00001744:    d4fc        ..      BMI      0x1740 ; LIN_SendHeaderUsingLinCtlReg + 36
        0x00001746:    bd70        p.      POP      {r4-r6,pc}
        0x00001748:    2301        .#      MOVS     r3,#1
        0x0000174a:    059b        ..      LSLS     r3,r3,#22
        0x0000174c:    4e9b        .N      LDR      r6,[pc,#620] ; [0x19bc] = 0x2000003c
        0x0000174e:    4299        .B      CMP      r1,r3
        0x00001750:    d10e        ..      BNE      0x1770 ; LIN_SendHeaderUsingLinCtlReg + 84
        0x00001752:    214b        K!      MOVS     r1,#0x4b
        0x00001754:    0409        ..      LSLS     r1,r1,#16
        0x00001756:    6361        ac      STR      r1,[r4,#0x34]
        0x00001758:    6b61        ak      LDR      r1,[r4,#0x34]
        0x0000175a:    4311        .C      ORRS     r1,r1,r2
        0x0000175c:    6361        ac      STR      r1,[r4,#0x34]
        0x0000175e:    6b61        ak      LDR      r1,[r4,#0x34]
        0x00001760:    05c9        ..      LSLS     r1,r1,#23
        0x00001762:    d4fc        ..      BMI      0x175e ; LIN_SendHeaderUsingLinCtlReg + 66
        0x00001764:    f7ffff47    ..G.    BL       GetParityValue ; 0x15f6
        0x00001768:    4601        .F      MOV      r1,r0
        0x0000176a:    6828        (h      LDR      r0,[r5,#0]
        0x0000176c:    1832        2.      ADDS     r2,r6,r0
        0x0000176e:    e13f        ?.      B        0x19f0 ; LIN_SendHeaderUsingLinCtlReg + 724
        0x00001770:    e143        C.      B        0x19fa ; LIN_SendHeaderUsingLinCtlReg + 734
    $d
        0x00001772:    0000        ..      DCW    0
        0x00001774:    00000a0a    ....    DCD    2570
        0x00001778:    2d2d2d2b    +---    DCD    757935403
        0x0000177c:    2d2d2d2d    ----    DCD    757935405
        0x00001780:    2d2d2d2d    ----    DCD    757935405
        0x00001784:    2d2d2d2d    ----    DCD    757935405
        0x00001788:    2d2d2d2d    ----    DCD    757935405
        0x0000178c:    2d2d2d2d    ----    DCD    757935405
        0x00001790:    2d2d2d2d    ----    DCD    757935405
        0x00001794:    2d2d2d2d    ----    DCD    757935405
        0x00001798:    2d2d2d2d    ----    DCD    757935405
        0x0000179c:    2d2d2d2d    ----    DCD    757935405
        0x000017a0:    2d2d2d2d    ----    DCD    757935405
        0x000017a4:    2d2d2d2d    ----    DCD    757935405
        0x000017a8:    2d2d2d2d    ----    DCD    757935405
        0x000017ac:    2d2d2d2d    ----    DCD    757935405
        0x000017b0:    2d2d2d2d    ----    DCD    757935405
        0x000017b4:    00000a2b    +...    DCD    2603
        0x000017b8:    2020207c    |       DCD    538976380
        0x000017bc:    494c2020      LI    DCD    1229725728
        0x000017c0:    614d204e    N Ma    DCD    1632444494
        0x000017c4:    72657473    ster    DCD    1919251571
        0x000017c8:    6e754620     Fun    DCD    1853179424
        0x000017cc:    6f697463    ctio    DCD    1869182051
        0x000017d0:    6554206e    n Te    DCD    1700012142
        0x000017d4:    20207473    st      DCD    538997875
        0x000017d8:    20202020            DCD    538976288
        0x000017dc:    20202020            DCD    538976288
        0x000017e0:    20202020            DCD    538976288
        0x000017e4:    20202020            DCD    538976288
        0x000017e8:    20202020            DCD    538976288
        0x000017ec:    20202020            DCD    538976288
        0x000017f0:    20202020            DCD    538976288
        0x000017f4:    00000a7c    |...    DCD    2684
        0x000017f8:    315b207c    | [1    DCD    828055676
        0x000017fc:    614d205d    ] Ma    DCD    1632444509
        0x00001800:    72657473    ster    DCD    1919251571
        0x00001804:    6e657320     sen    DCD    1852142368
        0x00001808:    65682064    d he    DCD    1701322852
        0x0000180c:    72656461    ader    DCD    1919247457
        0x00001810:    74697720     wit    DCD    1953068832
        0x00001814:    44492068    h ID    DCD    1145643112
        0x00001818:    30203d20     = 0    DCD    807419168
        0x0000181c:    20303378    x30     DCD    540029816
        0x00001820:    20202020            DCD    538976288
        0x00001824:    20202020            DCD    538976288
        0x00001828:    20202020            DCD    538976288
        0x0000182c:    20202020            DCD    538976288
        0x00001830:    20202020            DCD    538976288
        0x00001834:    00000a7c    |...    DCD    2684
        0x00001838:    325b207c    | [2    DCD    844832892
        0x0000183c:    614d205d    ] Ma    DCD    1632444509
        0x00001840:    72657473    ster    DCD    1919251571
        0x00001844:    6e657320     sen    DCD    1852142368
        0x00001848:    65682064    d he    DCD    1701322852
        0x0000184c:    72656461    ader    DCD    1919247457
        0x00001850:    646e6120     and    DCD    1684955424
        0x00001854:    73657220     res    DCD    1936028192
        0x00001858:    736e6f70    pons    DCD    1936617328
        0x0000185c:    69772065    e wi    DCD    1769414757
        0x00001860:    63206874    th c    DCD    1663068276
        0x00001864:    7373616c    lass    DCD    1936941420
        0x00001868:    63206369    ic c    DCD    1663066985
        0x0000186c:    6b636568    heck    DCD    1801676136
        0x00001870:    206d7573    sum     DCD    544044403
        0x00001874:    00000a7c    |...    DCD    2684
        0x00001878:    335b207c    | [3    DCD    861610108
        0x0000187c:    614d205d    ] Ma    DCD    1632444509
        0x00001880:    72657473    ster    DCD    1919251571
        0x00001884:    6e657320     sen    DCD    1852142368
        0x00001888:    65682064    d he    DCD    1701322852
        0x0000188c:    72656461    ader    DCD    1919247457
        0x00001890:    646e6120     and    DCD    1684955424
        0x00001894:    73657220     res    DCD    1936028192
        0x00001898:    736e6f70    pons    DCD    1936617328
        0x0000189c:    69772065    e wi    DCD    1769414757
        0x000018a0:    65206874    th e    DCD    1696622708
        0x000018a4:    6e61686e    nhan    DCD    1851877486
        0x000018a8:    20646563    ced     DCD    543450467
        0x000018ac:    63656863    chec    DCD    1667590243
        0x000018b0:    6d75736b    ksum    DCD    1836413803
        0x000018b4:    00000a7c    |...    DCD    2684
        0x000018b8:    2020207c    |       DCD    538976380
        0x000018bc:    20202020            DCD    538976288
        0x000018c0:    20202020            DCD    538976288
        0x000018c4:    20202020            DCD    538976288
        0x000018c8:    20202020            DCD    538976288
        0x000018cc:    20202020            DCD    538976288
        0x000018d0:    20202020            DCD    538976288
        0x000018d4:    20202020            DCD    538976288
        0x000018d8:    20202020            DCD    538976288
        0x000018dc:    20202020            DCD    538976288
        0x000018e0:    20202020            DCD    538976288
        0x000018e4:    20202020            DCD    538976288
        0x000018e8:    20202020            DCD    538976288
        0x000018ec:    20202020            DCD    538976288
        0x000018f0:    20202020            DCD    538976288
        0x000018f4:    00000a7c    |...    DCD    2684
        0x000018f8:    6f54207c    | To    DCD    1867784316
        0x000018fc:    61656d20     mea    DCD    1634037024
        0x00001900:    65727573    sure    DCD    1701999987
        0x00001904:    52415520     UAR    DCD    1380013344
        0x00001908:    545f3154    T1_T    DCD    1415524692
        0x0000190c:    70284458    XD(p    DCD    1881687128
        0x00001910:    36346e69    in46    DCD    909405801
        0x00001914:    6f742029    ) to    DCD    1869881385
        0x00001918:    65686320     che    DCD    1701339936
        0x0000191c:    77206b63    ck w    DCD    1998613347
        0x00001920:    66657661    avef    DCD    1717925473
        0x00001924:    206d726f    orm     DCD    544043631
        0x00001928:    202e2e2e    ...     DCD    539897390
        0x0000192c:    20202020            DCD    538976288
        0x00001930:    20202020            DCD    538976288
        0x00001934:    00000a7c    |...    DCD    2684
        0x00001938:    7551207c    | Qu    DCD    1968251004
        0x0000193c:    20207469    it      DCD    538997865
        0x00001940:    20202020            DCD    538976288
        0x00001944:    20202020            DCD    538976288
        0x00001948:    20202020            DCD    538976288
        0x0000194c:    20202020            DCD    538976288
        0x00001950:    20202020            DCD    538976288
        0x00001954:    20202020            DCD    538976288
        0x00001958:    20202020            DCD    538976288
        0x0000195c:    20202020            DCD    538976288
        0x00001960:    20202020            DCD    538976288
        0x00001964:    20202020            DCD    538976288
        0x00001968:    20202020            DCD    538976288
        0x0000196c:    455b202d    - [E    DCD    1163599917
        0x00001970:    205d4353    SC]     DCD    542982995
        0x00001974:    00000a7c    |...    DCD    2684
        0x00001978:    2d2d2d2b    +---    DCD    757935403
        0x0000197c:    2d2d2d2d    ----    DCD    757935405
        0x00001980:    2d2d2d2d    ----    DCD    757935405
        0x00001984:    2d2d2d2d    ----    DCD    757935405
        0x00001988:    2d2d2d2d    ----    DCD    757935405
        0x0000198c:    2d2d2d2d    ----    DCD    757935405
        0x00001990:    2d2d2d2d    ----    DCD    757935405
        0x00001994:    2d2d2d2d    ----    DCD    757935405
        0x00001998:    2d2d2d2d    ----    DCD    757935405
        0x0000199c:    2d2d2d2d    ----    DCD    757935405
        0x000019a0:    2d2d2d2d    ----    DCD    757935405
        0x000019a4:    2d2d2d2d    ----    DCD    757935405
        0x000019a8:    2d2d2d2d    ----    DCD    757935405
        0x000019ac:    2d2d2d2d    ----    DCD    757935405
        0x000019b0:    2d2d2d2d    ----    DCD    757935405
        0x000019b4:    000a0a2b    +...    DCD    657963
        0x000019b8:    20000030    0..     DCD    536870960
        0x000019bc:    2000003c    <..     DCD    536870972
        0x000019c0:    40150000    ...@    DCD    1075118080
        0x000019c4:    00002a14    .*..    DCD    10772
        0x000019c8:    300009c2    ...0    DCD    805308866
        0x000019cc:    20000038    8..     DCD    536870968
        0x000019d0:    000a6325    %c..    DCD    680741
        0x000019d4:    4e494c0a    .LIN    DCD    1313426442
        0x000019d8:    706d6153    Samp    DCD    1886216531
        0x000019dc:    4320656c    le C    DCD    1126196588
        0x000019e0:    2065646f    ode     DCD    543515759
        0x000019e4:    2e646e45    End.    DCD    778333765
        0x000019e8:    0000000a    ....    DCD    10
        0x000019ec:    008b0200    ....    DCD    9110016
    $t
        0x000019f0:    1c40        @.      ADDS     r0,r0,#1
        0x000019f2:    6028        (`      STR      r0,[r5,#0]
        0x000019f4:    7011        .p      STRB     r1,[r2,#0]
        0x000019f6:    2201        ."      MOVS     r2,#1
        0x000019f8:    e01a        ..      B        0x1a30 ; LIN_SendHeaderUsingLinCtlReg + 788
        0x000019fa:    2900        .)      CMP      r1,#0
        0x000019fc:    d000        ..      BEQ      0x1a00 ; LIN_SendHeaderUsingLinCtlReg + 740
        0x000019fe:    e6a2        ..      B        0x1746 ; LIN_SendHeaderUsingLinCtlReg + 42
        0x00001a00:    210b        .!      MOVS     r1,#0xb
        0x00001a02:    0409        ..      LSLS     r1,r1,#16
        0x00001a04:    6361        ac      STR      r1,[r4,#0x34]
        0x00001a06:    6b61        ak      LDR      r1,[r4,#0x34]
        0x00001a08:    4311        .C      ORRS     r1,r1,r2
        0x00001a0a:    6361        ac      STR      r1,[r4,#0x34]
        0x00001a0c:    6b61        ak      LDR      r1,[r4,#0x34]
        0x00001a0e:    05c9        ..      LSLS     r1,r1,#23
        0x00001a10:    d4fc        ..      BMI      0x1a0c ; LIN_SendHeaderUsingLinCtlReg + 752
        0x00001a12:    6829        )h      LDR      r1,[r5,#0]
        0x00001a14:    2255        U"      MOVS     r2,#0x55
        0x00001a16:    1873        s.      ADDS     r3,r6,r1
        0x00001a18:    1c49        I.      ADDS     r1,r1,#1
        0x00001a1a:    6029        )`      STR      r1,[r5,#0]
        0x00001a1c:    701a        .p      STRB     r2,[r3,#0]
        0x00001a1e:    f7fffdea    ....    BL       GetParityValue ; 0x15f6
        0x00001a22:    4601        .F      MOV      r1,r0
        0x00001a24:    6828        (h      LDR      r0,[r5,#0]
        0x00001a26:    1832        2.      ADDS     r2,r6,r0
        0x00001a28:    1c40        @.      ADDS     r0,r0,#1
        0x00001a2a:    6028        (`      STR      r0,[r5,#0]
        0x00001a2c:    7011        .p      STRB     r1,[r2,#0]
        0x00001a2e:    2202        ."      MOVS     r2,#2
        0x00001a30:    4936        6I      LDR      r1,[pc,#216] ; [0x1b0c] = 0x2000003c
        0x00001a32:    4620         F      MOV      r0,r4
        0x00001a34:    f000fd69    ..i.    BL       UART_Write ; 0x250a
        0x00001a38:    bd70        p.      POP      {r4-r6,pc}
    LIN_MasterTestUsingLinCtlReg
        0x00001a3a:    b5fe        ..      PUSH     {r1-r7,lr}
        0x00001a3c:    a434        4.      ADR      r4,{pc}+0xd4 ; 0x1b10
        0x00001a3e:    cc1c        ..      LDM      r4,{r2-r4}
        0x00001a40:    466d        mF      MOV      r5,sp
        0x00001a42:    c51c        ..      STM      r5!,{r2-r4}
        0x00001a44:    4f35        5O      LDR      r7,[pc,#212] ; [0x1b1c] = 0x40150000
        0x00001a46:    2902        .)      CMP      r1,#2
        0x00001a48:    d020         .      BEQ      0x1a8c ; LIN_MasterTestUsingLinCtlReg + 82
        0x00001a4a:    2901        .)      CMP      r1,#1
        0x00001a4c:    d11d        ..      BNE      0x1a8a ; LIN_MasterTestUsingLinCtlReg + 80
        0x00001a4e:    0589        ..      LSLS     r1,r1,#22
        0x00001a50:    f7fffe64    ..d.    BL       LIN_SendHeaderUsingLinCtlReg ; 0x171c
        0x00001a54:    4c32        2L      LDR      r4,[pc,#200] ; [0x1b20] = 0x20000030
        0x00001a56:    4d2d        -M      LDR      r5,[pc,#180] ; [0x1b0c] = 0x2000003c
        0x00001a58:    2000        .       MOVS     r0,#0
        0x00001a5a:    466e        nF      MOV      r6,sp
        0x00001a5c:    5c31        1\      LDRB     r1,[r6,r0]
        0x00001a5e:    6822        "h      LDR      r2,[r4,#0]
        0x00001a60:    18ab        ..      ADDS     r3,r5,r2
        0x00001a62:    1c52        R.      ADDS     r2,r2,#1
        0x00001a64:    6022        "`      STR      r2,[r4,#0]
        0x00001a66:    1c40        @.      ADDS     r0,r0,#1
        0x00001a68:    7019        .p      STRB     r1,[r3,#0]
        0x00001a6a:    2808        .(      CMP      r0,#8
        0x00001a6c:    d3f6        ..      BCC      0x1a5c ; LIN_MasterTestUsingLinCtlReg + 34
        0x00001a6e:    2109        .!      MOVS     r1,#9
        0x00001a70:    4826        &H      LDR      r0,[pc,#152] ; [0x1b0c] = 0x2000003c
        0x00001a72:    f7fffe43    ..C.    BL       ComputeChksumValue ; 0x16fc
        0x00001a76:    6822        "h      LDR      r2,[r4,#0]
        0x00001a78:    18ab        ..      ADDS     r3,r5,r2
        0x00001a7a:    1c52        R.      ADDS     r2,r2,#1
        0x00001a7c:    6022        "`      STR      r2,[r4,#0]
        0x00001a7e:    2209        ."      MOVS     r2,#9
        0x00001a80:    7018        .p      STRB     r0,[r3,#0]
        0x00001a82:    1c69        i.      ADDS     r1,r5,#1
        0x00001a84:    4638        8F      MOV      r0,r7
        0x00001a86:    f000fd40    ..@.    BL       UART_Write ; 0x250a
        0x00001a8a:    bdfe        ..      POP      {r1-r7,pc}
        0x00001a8c:    2101        .!      MOVS     r1,#1
        0x00001a8e:    05c9        ..      LSLS     r1,r1,#23
        0x00001a90:    f7fffe44    ..D.    BL       LIN_SendHeaderUsingLinCtlReg ; 0x171c
        0x00001a94:    2108        .!      MOVS     r1,#8
        0x00001a96:    4668        hF      MOV      r0,sp
        0x00001a98:    f7fffe30    ..0.    BL       ComputeChksumValue ; 0x16fc
        0x00001a9c:    4669        iF      MOV      r1,sp
        0x00001a9e:    7208        .r      STRB     r0,[r1,#8]
        0x00001aa0:    2209        ."      MOVS     r2,#9
        0x00001aa2:    e7ef        ..      B        0x1a84 ; LIN_MasterTestUsingLinCtlReg + 74
    LIN_FunctionTestUsingLinCtlReg
        0x00001aa4:    b570        p.      PUSH     {r4-r6,lr}
        0x00001aa6:    4d1d        .M      LDR      r5,[pc,#116] ; [0x1b1c] = 0x40150000
        0x00001aa8:    481e        .H      LDR      r0,[pc,#120] ; [0x1b24] = 0x300009c2
        0x00001aaa:    6268        hb      STR      r0,[r5,#0x24]
        0x00001aac:    2001        .       MOVS     r0,#1
        0x00001aae:    6328        (c      STR      r0,[r5,#0x30]
        0x00001ab0:    05c6        ..      LSLS     r6,r0,#23
        0x00001ab2:    f7fffd4f    ..O.    BL       LIN_TestItem ; 0x1554
        0x00001ab6:    481c        .H      LDR      r0,[pc,#112] ; [0x1b28] = 0x20000038
        0x00001ab8:    f000ffa8    ....    BL       getc ; 0x2a0c
        0x00001abc:    4604        .F      MOV      r4,r0
        0x00001abe:    4601        .F      MOV      r1,r0
        0x00001ac0:    481a        .H      LDR      r0,[pc,#104] ; [0x1b2c] = 0x19d0
        0x00001ac2:    f000fd39    ..9.    BL       __0printf$8 ; 0x2538
        0x00001ac6:    4620         F      MOV      r0,r4
        0x00001ac8:    2c31        1,      CMP      r4,#0x31
        0x00001aca:    d011        ..      BEQ      0x1af0 ; LIN_FunctionTestUsingLinCtlReg + 76
        0x00001acc:    2832        2(      CMP      r0,#0x32
        0x00001ace:    d014        ..      BEQ      0x1afa ; LIN_FunctionTestUsingLinCtlReg + 86
        0x00001ad0:    2c33        3,      CMP      r4,#0x33
        0x00001ad2:    d015        ..      BEQ      0x1b00 ; LIN_FunctionTestUsingLinCtlReg + 92
        0x00001ad4:    281b        .(      CMP      r0,#0x1b
        0x00001ad6:    d1ec        ..      BNE      0x1ab2 ; LIN_FunctionTestUsingLinCtlReg + 14
        0x00001ad8:    6b68        hk      LDR      r0,[r5,#0x34]
        0x00001ada:    2103        .!      MOVS     r1,#3
        0x00001adc:    0589        ..      LSLS     r1,r1,#22
        0x00001ade:    4388        .C      BICS     r0,r0,r1
        0x00001ae0:    6368        hc      STR      r0,[r5,#0x34]
        0x00001ae2:    2000        .       MOVS     r0,#0
        0x00001ae4:    6328        (c      STR      r0,[r5,#0x30]
        0x00001ae6:    4811        .H      LDR      r0,[pc,#68] ; [0x1b2c] = 0x19d0
        0x00001ae8:    1d00        ..      ADDS     r0,r0,#4
        0x00001aea:    f000fd25    ..%.    BL       __0printf$8 ; 0x2538
        0x00001aee:    bd70        p.      POP      {r4-r6,pc}
        0x00001af0:    4631        1F      MOV      r1,r6
        0x00001af2:    2030        0       MOVS     r0,#0x30
        0x00001af4:    f7fffe12    ....    BL       LIN_SendHeaderUsingLinCtlReg ; 0x171c
        0x00001af8:    e7db        ..      B        0x1ab2 ; LIN_FunctionTestUsingLinCtlReg + 14
        0x00001afa:    2102        .!      MOVS     r1,#2
        0x00001afc:    2035        5       MOVS     r0,#0x35
        0x00001afe:    e001        ..      B        0x1b04 ; LIN_FunctionTestUsingLinCtlReg + 96
        0x00001b00:    2101        .!      MOVS     r1,#1
        0x00001b02:    2012        .       MOVS     r0,#0x12
        0x00001b04:    f7ffff99    ....    BL       LIN_MasterTestUsingLinCtlReg ; 0x1a3a
        0x00001b08:    e7d3        ..      B        0x1ab2 ; LIN_FunctionTestUsingLinCtlReg + 14
    $d
        0x00001b0a:    0000        ..      DCW    0
        0x00001b0c:    2000003c    <..     DCD    536870972
        0x00001b10:    04030201    ....    DCD    67305985
        0x00001b14:    08070605    ....    DCD    134678021
        0x00001b18:    00000000    ....    DCD    0
        0x00001b1c:    40150000    ...@    DCD    1075118080
        0x00001b20:    20000030    0..     DCD    536870960
        0x00001b24:    300009c2    ...0    DCD    805308866
        0x00001b28:    20000038    8..     DCD    536870968
        0x00001b2c:    000019d0    ....    DCD    6608
    $t
    .text
    RS485_HANDLE
        0x00001b30:    b538        8.      PUSH     {r3-r5,lr}
        0x00001b32:    2000        .       MOVS     r0,#0
        0x00001b34:    20ff        .       MOVS     r0,#0xff
        0x00001b36:    4c8d        .L      LDR      r4,[pc,#564] ; [0x1d6c] = 0x40150000
        0x00001b38:    9000        ..      STR      r0,[sp,#0]
        0x00001b3a:    69e0        .i      LDR      r0,[r4,#0x1c]
        0x00001b3c:    9000        ..      STR      r0,[sp,#0]
        0x00001b3e:    0540        @.      LSLS     r0,r0,#21
        0x00001b40:    9800        ..      LDR      r0,[sp,#0]
        0x00001b42:    d522        ".      BPL      0x1b8a ; RS485_HANDLE + 90
        0x00001b44:    05c0        ..      LSLS     r0,r0,#23
        0x00001b46:    d522        ".      BPL      0x1b8e ; RS485_HANDLE + 94
        0x00001b48:    69a0        .i      LDR      r0,[r4,#0x18]
        0x00001b4a:    0700        ..      LSLS     r0,r0,#28
        0x00001b4c:    d519        ..      BPL      0x1b82 ; RS485_HANDLE + 82
        0x00001b4e:    6820         h      LDR      r0,[r4,#0]
        0x00001b50:    9000        ..      STR      r0,[sp,#0]
        0x00001b52:    69a0        .i      LDR      r0,[r4,#0x18]
        0x00001b54:    2108        .!      MOVS     r1,#8
        0x00001b56:    4308        .C      ORRS     r0,r0,r1
        0x00001b58:    61a0        .a      STR      r0,[r4,#0x18]
        0x00001b5a:    a085        ..      ADR      r0,{pc}+0x216 ; 0x1d70
        0x00001b5c:    9900        ..      LDR      r1,[sp,#0]
        0x00001b5e:    f000fceb    ....    BL       __0printf$8 ; 0x2538
        0x00001b62:    9800        ..      LDR      r0,[sp,#0]
        0x00001b64:    15a5        ..      ASRS     r5,r4,#22
        0x00001b66:    28c0        .(      CMP      r0,#0xc0
        0x00001b68:    d00c        ..      BEQ      0x1b84 ; RS485_HANDLE + 84
        0x00001b6a:    28a2        .(      CMP      r0,#0xa2
        0x00001b6c:    d00a        ..      BEQ      0x1b84 ; RS485_HANDLE + 84
        0x00001b6e:    a084        ..      ADR      r0,{pc}+0x212 ; 0x1d80
        0x00001b70:    f000fce2    ....    BL       __0printf$8 ; 0x2538
        0x00001b74:    68a0        .h      LDR      r0,[r4,#8]
        0x00001b76:    4328        (C      ORRS     r0,r0,r5
        0x00001b78:    60a0        .`      STR      r0,[r4,#8]
        0x00001b7a:    68a0        .h      LDR      r0,[r4,#8]
        0x00001b7c:    2102        .!      MOVS     r1,#2
        0x00001b7e:    4308        .C      ORRS     r0,r0,r1
        0x00001b80:    60a0        .`      STR      r0,[r4,#8]
        0x00001b82:    bd38        8.      POP      {r3-r5,pc}
        0x00001b84:    68a0        .h      LDR      r0,[r4,#8]
        0x00001b86:    43a8        .C      BICS     r0,r0,r5
        0x00001b88:    e7fa        ..      B        0x1b80 ; RS485_HANDLE + 80
        0x00001b8a:    05c0        ..      LSLS     r0,r0,#23
        0x00001b8c:    d402        ..      BMI      0x1b94 ; RS485_HANDLE + 100
        0x00001b8e:    9800        ..      LDR      r0,[sp,#0]
        0x00001b90:    04c0        ..      LSLS     r0,r0,#19
        0x00001b92:    d504        ..      BPL      0x1b9e ; RS485_HANDLE + 110
        0x00001b94:    6821        !h      LDR      r1,[r4,#0]
        0x00001b96:    a07b        {.      ADR      r0,{pc}+0x1ee ; 0x1d84
        0x00001b98:    f000fcce    ....    BL       __0printf$8 ; 0x2538
        0x00001b9c:    bd38        8.      POP      {r3-r5,pc}
        0x00001b9e:    9800        ..      LDR      r0,[sp,#0]
        0x00001ba0:    0480        ..      LSLS     r0,r0,#18
        0x00001ba2:    d5fb        ..      BPL      0x1b9c ; RS485_HANDLE + 108
        0x00001ba4:    a079        y.      ADR      r0,{pc}+0x1e8 ; 0x1d8c
        0x00001ba6:    f000fcc7    ....    BL       __0printf$8 ; 0x2538
        0x00001baa:    69a0        .i      LDR      r0,[r4,#0x18]
        0x00001bac:    497c        |I      LDR      r1,[pc,#496] ; [0x1da0] = 0x1000001
        0x00001bae:    4308        .C      ORRS     r0,r0,r1
        0x00001bb0:    61a0        .a      STR      r0,[r4,#0x18]
        0x00001bb2:    bd38        8.      POP      {r3-r5,pc}
    RS485_SendAddressByte
        0x00001bb4:    496d        mI      LDR      r1,[pc,#436] ; [0x1d6c] = 0x40150000
        0x00001bb6:    222b        +"      MOVS     r2,#0x2b
        0x00001bb8:    60ca        .`      STR      r2,[r1,#0xc]
        0x00001bba:    6008        .`      STR      r0,[r1,#0]
        0x00001bbc:    4770        pG      BX       lr
    RS485_SendDataByte
        0x00001bbe:    b570        p.      PUSH     {r4-r6,lr}
        0x00001bc0:    4d6a        jM      LDR      r5,[pc,#424] ; [0x1d6c] = 0x40150000
        0x00001bc2:    223b        ;"      MOVS     r2,#0x3b
        0x00001bc4:    60ea        .`      STR      r2,[r5,#0xc]
        0x00001bc6:    2300        .#      MOVS     r3,#0
        0x00001bc8:    03ae        ..      LSLS     r6,r5,#14
        0x00001bca:    e00a        ..      B        0x1be2 ; RS485_SendDataByte + 36
        0x00001bcc:    2200        ."      MOVS     r2,#0
        0x00001bce:    e002        ..      B        0x1bd6 ; RS485_SendDataByte + 24
        0x00001bd0:    1c52        R.      ADDS     r2,r2,#1
        0x00001bd2:    42b2        .B      CMP      r2,r6
        0x00001bd4:    d207        ..      BCS      0x1be6 ; RS485_SendDataByte + 40
        0x00001bd6:    69ac        .i      LDR      r4,[r5,#0x18]
        0x00001bd8:    00e4        ..      LSLS     r4,r4,#3
        0x00001bda:    d5f9        ..      BPL      0x1bd0 ; RS485_SendDataByte + 18
        0x00001bdc:    5cc2        .\      LDRB     r2,[r0,r3]
        0x00001bde:    602a        *`      STR      r2,[r5,#0]
        0x00001be0:    1c5b        [.      ADDS     r3,r3,#1
        0x00001be2:    428b        .B      CMP      r3,r1
        0x00001be4:    d1f2        ..      BNE      0x1bcc ; RS485_SendDataByte + 14
        0x00001be6:    bd70        p.      POP      {r4-r6,pc}
    RS485_9bitModeMaster
        0x00001be8:    b530        0.      PUSH     {r4,r5,lr}
        0x00001bea:    b08d        ..      SUB      sp,sp,#0x34
        0x00001bec:    2000        .       MOVS     r0,#0
        0x00001bee:    9000        ..      STR      r0,[sp,#0]
        0x00001bf0:    9001        ..      STR      r0,[sp,#4]
        0x00001bf2:    9002        ..      STR      r0,[sp,#8]
        0x00001bf4:    9003        ..      STR      r0,[sp,#0xc]
        0x00001bf6:    9004        ..      STR      r0,[sp,#0x10]
        0x00001bf8:    9005        ..      STR      r0,[sp,#0x14]
        0x00001bfa:    9006        ..      STR      r0,[sp,#0x18]
        0x00001bfc:    9007        ..      STR      r0,[sp,#0x1c]
        0x00001bfe:    9008        ..      STR      r0,[sp,#0x20]
        0x00001c00:    9009        ..      STR      r0,[sp,#0x24]
        0x00001c02:    900a        ..      STR      r0,[sp,#0x28]
        0x00001c04:    900b        ..      STR      r0,[sp,#0x2c]
        0x00001c06:    a067        g.      ADR      r0,{pc}+0x19e ; 0x1da4
        0x00001c08:    f000fc96    ....    BL       __0printf$8 ; 0x2538
        0x00001c0c:    a066        f.      ADR      r0,{pc}+0x19c ; 0x1da8
        0x00001c0e:    f000fc93    ....    BL       __0printf$8 ; 0x2538
        0x00001c12:    a075        u.      ADR      r0,{pc}+0x1d6 ; 0x1de8
        0x00001c14:    f000fc90    ....    BL       __0printf$8 ; 0x2538
        0x00001c18:    a063        c.      ADR      r0,{pc}+0x190 ; 0x1da8
        0x00001c1a:    f000fc8d    ....    BL       __0printf$8 ; 0x2538
        0x00001c1e:    a082        ..      ADR      r0,{pc}+0x20a ; 0x1e28
        0x00001c20:    f000fc8a    ....    BL       __0printf$8 ; 0x2538
        0x00001c24:    a090        ..      ADR      r0,{pc}+0x244 ; 0x1e68
        0x00001c26:    f000fc87    ....    BL       __0printf$8 ; 0x2538
        0x00001c2a:    a09f        ..      ADR      r0,{pc}+0x27e ; 0x1ea8
        0x00001c2c:    f000fc84    ....    BL       __0printf$8 ; 0x2538
        0x00001c30:    a0ad        ..      ADR      r0,{pc}+0x2b8 ; 0x1ee8
        0x00001c32:    f000fc81    ....    BL       __0printf$8 ; 0x2538
        0x00001c36:    a0bc        ..      ADR      r0,{pc}+0x2f2 ; 0x1f28
        0x00001c38:    f000fc7e    ..~.    BL       __0printf$8 ; 0x2538
        0x00001c3c:    f000fbdf    ....    BL       GetChar ; 0x23fe
        0x00001c40:    484a        JH      LDR      r0,[pc,#296] ; [0x1d6c] = 0x40150000
        0x00001c42:    2103        .!      MOVS     r1,#3
        0x00001c44:    6301        .c      STR      r1,[r0,#0x30]
        0x00001c46:    2101        .!      MOVS     r1,#1
        0x00001c48:    0289        ..      LSLS     r1,r1,#10
        0x00001c4a:    62c1        .b      STR      r1,[r0,#0x2c]
        0x00001c4c:    2000        .       MOVS     r0,#0
        0x00001c4e:    466b        kF      MOV      r3,sp
        0x00001c50:    a903        ..      ADD      r1,sp,#0xc
        0x00001c52:    ac06        ..      ADD      r4,sp,#0x18
        0x00001c54:    aa09        ..      ADD      r2,sp,#0x24
        0x00001c56:    4605        .F      MOV      r5,r0
        0x00001c58:    5418        .T      STRB     r0,[r3,r0]
        0x00001c5a:    350a        .5      ADDS     r5,r5,#0xa
        0x00001c5c:    540d        .T      STRB     r5,[r1,r0]
        0x00001c5e:    350a        .5      ADDS     r5,r5,#0xa
        0x00001c60:    5425        %T      STRB     r5,[r4,r0]
        0x00001c62:    350a        .5      ADDS     r5,r5,#0xa
        0x00001c64:    5415        .T      STRB     r5,[r2,r0]
        0x00001c66:    1c40        @.      ADDS     r0,r0,#1
        0x00001c68:    280a        .(      CMP      r0,#0xa
        0x00001c6a:    dbf4        ..      BLT      0x1c56 ; RS485_9bitModeMaster + 110
        0x00001c6c:    21c0        .!      MOVS     r1,#0xc0
        0x00001c6e:    a0be        ..      ADR      r0,{pc}+0x2fa ; 0x1f68
        0x00001c70:    f000fc62    ..b.    BL       __0printf$8 ; 0x2538
        0x00001c74:    20c0        .       MOVS     r0,#0xc0
        0x00001c76:    f7ffff9d    ....    BL       RS485_SendAddressByte ; 0x1bb4
        0x00001c7a:    210a        .!      MOVS     r1,#0xa
        0x00001c7c:    4668        hF      MOV      r0,sp
        0x00001c7e:    f7ffff9e    ....    BL       RS485_SendDataByte ; 0x1bbe
        0x00001c82:    21b1        .!      MOVS     r1,#0xb1
        0x00001c84:    a0c0        ..      ADR      r0,{pc}+0x304 ; 0x1f88
        0x00001c86:    f000fc57    ..W.    BL       __0printf$8 ; 0x2538
        0x00001c8a:    20b1        .       MOVS     r0,#0xb1
        0x00001c8c:    f7ffff92    ....    BL       RS485_SendAddressByte ; 0x1bb4
        0x00001c90:    210a        .!      MOVS     r1,#0xa
        0x00001c92:    a803        ..      ADD      r0,sp,#0xc
        0x00001c94:    f7ffff93    ....    BL       RS485_SendDataByte ; 0x1bbe
        0x00001c98:    21a2        .!      MOVS     r1,#0xa2
        0x00001c9a:    a0c3        ..      ADR      r0,{pc}+0x30e ; 0x1fa8
        0x00001c9c:    f000fc4c    ..L.    BL       __0printf$8 ; 0x2538
        0x00001ca0:    20a2        .       MOVS     r0,#0xa2
        0x00001ca2:    f7ffff87    ....    BL       RS485_SendAddressByte ; 0x1bb4
        0x00001ca6:    210a        .!      MOVS     r1,#0xa
        0x00001ca8:    a806        ..      ADD      r0,sp,#0x18
        0x00001caa:    f7ffff88    ....    BL       RS485_SendDataByte ; 0x1bbe
        0x00001cae:    21d3        .!      MOVS     r1,#0xd3
        0x00001cb0:    a0c5        ..      ADR      r0,{pc}+0x318 ; 0x1fc8
        0x00001cb2:    f000fc41    ..A.    BL       __0printf$8 ; 0x2538
        0x00001cb6:    20d3        .       MOVS     r0,#0xd3
        0x00001cb8:    f7ffff7c    ..|.    BL       RS485_SendAddressByte ; 0x1bb4
        0x00001cbc:    210a        .!      MOVS     r1,#0xa
        0x00001cbe:    a809        ..      ADD      r0,sp,#0x24
        0x00001cc0:    f7ffff7d    ..}.    BL       RS485_SendDataByte ; 0x1bbe
        0x00001cc4:    a0c8        ..      ADR      r0,{pc}+0x324 ; 0x1fe8
        0x00001cc6:    f000fc37    ..7.    BL       __0printf$8 ; 0x2538
        0x00001cca:    b00d        ..      ADD      sp,sp,#0x34
        0x00001ccc:    bd30        0.      POP      {r4,r5,pc}
    RS485_9bitModeSlave
        0x00001cce:    b570        p.      PUSH     {r4-r6,lr}
        0x00001cd0:    4c26        &L      LDR      r4,[pc,#152] ; [0x1d6c] = 0x40150000
        0x00001cd2:    201b        .       MOVS     r0,#0x1b
        0x00001cd4:    60e0        .`      STR      r0,[r4,#0xc]
        0x00001cd6:    68a0        .h      LDR      r0,[r4,#8]
        0x00001cd8:    21f0        .!      MOVS     r1,#0xf0
        0x00001cda:    4388        .C      BICS     r0,r0,r1
        0x00001cdc:    60a0        .`      STR      r0,[r4,#8]
        0x00001cde:    a032        2.      ADR      r0,{pc}+0xca ; 0x1da8
        0x00001ce0:    f000fc2a    ..*.    BL       __0printf$8 ; 0x2538
        0x00001ce4:    a0c4        ..      ADR      r0,{pc}+0x314 ; 0x1ff8
        0x00001ce6:    f000fc27    ..'.    BL       __0printf$8 ; 0x2538
        0x00001cea:    a02f        /.      ADR      r0,{pc}+0xbe ; 0x1da8
        0x00001cec:    f000fc24    ..$.    BL       __0printf$8 ; 0x2538
        0x00001cf0:    a0d1        ..      ADR      r0,{pc}+0x348 ; 0x2038
        0x00001cf2:    f000fc21    ..!.    BL       __0printf$8 ; 0x2538
        0x00001cf6:    22a2        ."      MOVS     r2,#0xa2
        0x00001cf8:    21c0        .!      MOVS     r1,#0xc0
        0x00001cfa:    a0df        ..      ADR      r0,{pc}+0x37e ; 0x2078
        0x00001cfc:    f000fc1c    ....    BL       __0printf$8 ; 0x2538
        0x00001d00:    a029        ).      ADR      r0,{pc}+0xa8 ; 0x1da8
        0x00001d02:    f000fc19    ....    BL       __0printf$8 ; 0x2538
        0x00001d06:    68a0        .h      LDR      r0,[r4,#8]
        0x00001d08:    15a1        ..      ASRS     r1,r4,#22
        0x00001d0a:    4308        .C      ORRS     r0,r0,r1
        0x00001d0c:    60a0        .`      STR      r0,[r4,#8]
        0x00001d0e:    2081        .       MOVS     r0,#0x81
        0x00001d10:    0200        ..      LSLS     r0,r0,#8
        0x00001d12:    62e0        .b      STR      r0,[r4,#0x2c]
        0x00001d14:    2003        .       MOVS     r0,#3
        0x00001d16:    6320         c      STR      r0,[r4,#0x30]
        0x00001d18:    6860        `h      LDR      r0,[r4,#4]
        0x00001d1a:    2515        .%      MOVS     r5,#0x15
        0x00001d1c:    4328        (C      ORRS     r0,r0,r5
        0x00001d1e:    6060        ``      STR      r0,[r4,#4]
        0x00001d20:    0148        H.      LSLS     r0,r1,#5
        0x00001d22:    49e5        .I      LDR      r1,[pc,#916] ; [0x20b8] = 0xe000e100
        0x00001d24:    6008        .`      STR      r0,[r1,#0]
        0x00001d26:    a0e5        ..      ADR      r0,{pc}+0x396 ; 0x20bc
        0x00001d28:    f000fc06    ....    BL       __0printf$8 ; 0x2538
        0x00001d2c:    f000fb67    ..g.    BL       GetChar ; 0x23fe
        0x00001d30:    68a0        .h      LDR      r0,[r4,#8]
        0x00001d32:    2106        .!      MOVS     r1,#6
        0x00001d34:    4308        .C      ORRS     r0,r0,r1
        0x00001d36:    60a0        .`      STR      r0,[r4,#8]
        0x00001d38:    6860        `h      LDR      r0,[r4,#4]
        0x00001d3a:    43a8        .C      BICS     r0,r0,r5
        0x00001d3c:    6060        ``      STR      r0,[r4,#4]
        0x00001d3e:    2000        .       MOVS     r0,#0
        0x00001d40:    6320         c      STR      r0,[r4,#0x30]
        0x00001d42:    a0ec        ..      ADR      r0,{pc}+0x3b2 ; 0x20f4
        0x00001d44:    f000fbf8    ....    BL       __0printf$8 ; 0x2538
        0x00001d48:    bd70        p.      POP      {r4-r6,pc}
    RS485_FunctionTest
        0x00001d4a:    b510        ..      PUSH     {r4,lr}
        0x00001d4c:    a015        ..      ADR      r0,{pc}+0x58 ; 0x1da4
        0x00001d4e:    f000fbf3    ....    BL       __0printf$8 ; 0x2538
        0x00001d52:    a015        ..      ADR      r0,{pc}+0x56 ; 0x1da8
        0x00001d54:    f000fbf0    ....    BL       __0printf$8 ; 0x2538
        0x00001d58:    a0e9        ..      ADR      r0,{pc}+0x3a8 ; 0x2100
        0x00001d5a:    f000fbed    ....    BL       __0printf$8 ; 0x2538
        0x00001d5e:    a012        ..      ADR      r0,{pc}+0x4a ; 0x1da8
        0x00001d60:    f000fbea    ....    BL       __0printf$8 ; 0x2538
        0x00001d64:    a0f6        ..      ADR      r0,{pc}+0x3dc ; 0x2140
        0x00001d66:    f000fbe7    ....    BL       __0printf$8 ; 0x2538
        0x00001d6a:    e209        ..      B        0x2180 ; RS485_FunctionTest + 1078
    $d
        0x00001d6c:    40150000    ...@    DCD    1075118080
        0x00001d70:    6464410a    .Add    DCD    1684291850
        0x00001d74:    78303d72    r=0x    DCD    2016427378
        0x00001d78:    472c7825    %x,G    DCD    1194096677
        0x00001d7c:    003a7465    et:.    DCD    3830885
        0x00001d80:    0000000a    ....    DCD    10
        0x00001d84:    2c643225    %2d,    DCD    744763941
        0x00001d88:    00000000    ....    DCD    0
        0x00001d8c:    6675420a    .Buf    DCD    1718960650
        0x00001d90:    20726566    fer     DCD    544367974
        0x00001d94:    6f727245    Erro    DCD    1869771333
        0x00001d98:    2e2e2e72    r...    DCD    774778482
        0x00001d9c:    0000000a    ....    DCD    10
        0x00001da0:    01000001    ....    DCD    16777217
        0x00001da4:    00000a0a    ....    DCD    2570
        0x00001da8:    2d2d2d2b    +---    DCD    757935403
        0x00001dac:    2d2d2d2d    ----    DCD    757935405
        0x00001db0:    2d2d2d2d    ----    DCD    757935405
        0x00001db4:    2d2d2d2d    ----    DCD    757935405
        0x00001db8:    2d2d2d2d    ----    DCD    757935405
        0x00001dbc:    2d2d2d2d    ----    DCD    757935405
        0x00001dc0:    2d2d2d2d    ----    DCD    757935405
        0x00001dc4:    2d2d2d2d    ----    DCD    757935405
        0x00001dc8:    2d2d2d2d    ----    DCD    757935405
        0x00001dcc:    2d2d2d2d    ----    DCD    757935405
        0x00001dd0:    2d2d2d2d    ----    DCD    757935405
        0x00001dd4:    2d2d2d2d    ----    DCD    757935405
        0x00001dd8:    2d2d2d2d    ----    DCD    757935405
        0x00001ddc:    2d2d2d2d    ----    DCD    757935405
        0x00001de0:    2d2d2d2d    ----    DCD    757935405
        0x00001de4:    00000a2b    +...    DCD    2603
        0x00001de8:    2020207c    |       DCD    538976380
        0x00001dec:    20202020            DCD    538976288
        0x00001df0:    20202020            DCD    538976288
        0x00001df4:    20202020            DCD    538976288
        0x00001df8:    38345352    RS48    DCD    942953298
        0x00001dfc:    2d392035    5 9-    DCD    758718517
        0x00001e00:    20746962    bit     DCD    544500066
        0x00001e04:    7473614d    Mast    DCD    1953718605
        0x00001e08:    54207265    er T    DCD    1411412581
        0x00001e0c:    20747365    est     DCD    544502629
        0x00001e10:    20202020            DCD    538976288
        0x00001e14:    20202020            DCD    538976288
        0x00001e18:    20202020            DCD    538976288
        0x00001e1c:    20202020            DCD    538976288
        0x00001e20:    20202020            DCD    538976288
        0x00001e24:    00000a7c    |...    DCD    2684
        0x00001e28:    6854207c    | Th    DCD    1750343804
        0x00001e2c:    75662065    e fu    DCD    1969627237
        0x00001e30:    6974636e    ncti    DCD    1769235310
        0x00001e34:    6977206e    n wi    DCD    1769414766
        0x00001e38:    73206c6c    ll s    DCD    1931504748
        0x00001e3c:    20646e65    end     DCD    543452773
        0x00001e40:    66666964    diff    DCD    1717987684
        0x00001e44:    6e657265    eren    DCD    1852142181
        0x00001e48:    64612074    t ad    DCD    1684086900
        0x00001e4c:    73657264    dres    DCD    1936028260
        0x00001e50:    69772073    s wi    DCD    1769414771
        0x00001e54:    31206874    th 1    DCD    824207476
        0x00001e58:    61206430    0d a    DCD    1629512752
        0x00001e5c:    62206174    ta b    DCD    1646289268
        0x00001e60:    73657479    ytes    DCD    1936028793
        0x00001e64:    00000a7c    |...    DCD    2684
        0x00001e68:    6f74207c    | to    DCD    1869881468
        0x00001e6c:    73657420     tes    DCD    1936028704
        0x00001e70:    53522074    t RS    DCD    1397891188
        0x00001e74:    20353834    485     DCD    540358708
        0x00001e78:    69622d39    9-bi    DCD    1768041785
        0x00001e7c:    6f6d2074    t mo    DCD    1869422708
        0x00001e80:    202e6564    de.     DCD    539911524
        0x00001e84:    61656c50    Plea    DCD    1634036816
        0x00001e88:    63206573    se c    DCD    1663067507
        0x00001e8c:    656e6e6f    onne    DCD    1701736047
        0x00001e90:    54207463    ct T    DCD    1411413091
        0x00001e94:    58522f58    X/RX    DCD    1481781080
        0x00001e98:    206f7420     to     DCD    544175136
        0x00001e9c:    746f6e61    anot    DCD    1953459809
        0x00001ea0:    20726568    her     DCD    544367976
        0x00001ea4:    00000a7c    |...    DCD    2684
        0x00001ea8:    6f62207c    | bo    DCD    1868701820
        0x00001eac:    20647261    ard     DCD    543453793
        0x00001eb0:    20646e61    and     DCD    543452769
        0x00001eb4:    74696177    wait    DCD    1953063287
        0x00001eb8:    73746920     its    DCD    1937008928
        0x00001ebc:    61657220     rea    DCD    1634038304
        0x00001ec0:    74207964    dy t    DCD    1948285284
        0x00001ec4:    6572206f    o re    DCD    1701978223
        0x00001ec8:    76696563    ceiv    DCD    1986618723
        0x00001ecc:    20202e65    e.      DCD    538979941
        0x00001ed0:    20202020            DCD    538976288
        0x00001ed4:    20202020            DCD    538976288
        0x00001ed8:    20202020            DCD    538976288
        0x00001edc:    20202020            DCD    538976288
        0x00001ee0:    20202020            DCD    538976288
        0x00001ee4:    00000a7c    |...    DCD    2684
        0x00001ee8:    7250207c    | Pr    DCD    1917853820
        0x00001eec:    20737365    ess     DCD    544437093
        0x00001ef0:    20796e61    any     DCD    544829025
        0x00001ef4:    2079656b    key     DCD    544826731
        0x00001ef8:    73206f74    to s    DCD    1931505524
        0x00001efc:    74726174    tart    DCD    1953653108
        0x00001f00:    202e2e2e    ...     DCD    539897390
        0x00001f04:    20202020            DCD    538976288
        0x00001f08:    20202020            DCD    538976288
        0x00001f0c:    20202020            DCD    538976288
        0x00001f10:    20202020            DCD    538976288
        0x00001f14:    20202020            DCD    538976288
        0x00001f18:    20202020            DCD    538976288
        0x00001f1c:    20202020            DCD    538976288
        0x00001f20:    20202020            DCD    538976288
        0x00001f24:    00000a7c    |...    DCD    2684
        0x00001f28:    2d2d2d2b    +---    DCD    757935403
        0x00001f2c:    2d2d2d2d    ----    DCD    757935405
        0x00001f30:    2d2d2d2d    ----    DCD    757935405
        0x00001f34:    2d2d2d2d    ----    DCD    757935405
        0x00001f38:    2d2d2d2d    ----    DCD    757935405
        0x00001f3c:    2d2d2d2d    ----    DCD    757935405
        0x00001f40:    2d2d2d2d    ----    DCD    757935405
        0x00001f44:    2d2d2d2d    ----    DCD    757935405
        0x00001f48:    2d2d2d2d    ----    DCD    757935405
        0x00001f4c:    2d2d2d2d    ----    DCD    757935405
        0x00001f50:    2d2d2d2d    ----    DCD    757935405
        0x00001f54:    2d2d2d2d    ----    DCD    757935405
        0x00001f58:    2d2d2d2d    ----    DCD    757935405
        0x00001f5c:    2d2d2d2d    ----    DCD    757935405
        0x00001f60:    2d2d2d2d    ----    DCD    757935405
        0x00001f64:    000a0a2b    +...    DCD    657963
        0x00001f68:    646e6553    Send    DCD    1684956499
        0x00001f6c:    64644120     Add    DCD    1684291872
        0x00001f70:    73736572    ress    DCD    1936942450
        0x00001f74:    20782520     %x     DCD    544744736
        0x00001f78:    20646e61    and     DCD    543452769
        0x00001f7c:    61746164    data    DCD    1635017060
        0x00001f80:    397e3020     0~9    DCD    964571168
        0x00001f84:    0000000a    ....    DCD    10
        0x00001f88:    646e6553    Send    DCD    1684956499
        0x00001f8c:    64644120     Add    DCD    1684291872
        0x00001f90:    73736572    ress    DCD    1936942450
        0x00001f94:    20782520     %x     DCD    544744736
        0x00001f98:    20646e61    and     DCD    543452769
        0x00001f9c:    61746164    data    DCD    1635017060
        0x00001fa0:    7e303120     10~    DCD    2117087520
        0x00001fa4:    000a3931    19..    DCD    670001
        0x00001fa8:    646e6553    Send    DCD    1684956499
        0x00001fac:    64644120     Add    DCD    1684291872
        0x00001fb0:    73736572    ress    DCD    1936942450
        0x00001fb4:    20782520     %x     DCD    544744736
        0x00001fb8:    20646e61    and     DCD    543452769
        0x00001fbc:    61746164    data    DCD    1635017060
        0x00001fc0:    7e303220     20~    DCD    2117087776
        0x00001fc4:    000a3932    29..    DCD    670002
        0x00001fc8:    646e6553    Send    DCD    1684956499
        0x00001fcc:    64644120     Add    DCD    1684291872
        0x00001fd0:    73736572    ress    DCD    1936942450
        0x00001fd4:    20782520     %x     DCD    544744736
        0x00001fd8:    20646e61    and     DCD    543452769
        0x00001fdc:    61746164    data    DCD    1635017060
        0x00001fe0:    7e303320     30~    DCD    2117088032
        0x00001fe4:    000a3933    39..    DCD    670003
        0x00001fe8:    6e617254    Tran    DCD    1851880020
        0x00001fec:    72656673    sfer    DCD    1919247987
        0x00001ff0:    6e6f4420     Don    DCD    1852785696
        0x00001ff4:    00000a65    e...    DCD    2661
        0x00001ff8:    2020207c    |       DCD    538976380
        0x00001ffc:    726f4e20     Nor    DCD    1919897120
        0x00002000:    206c616d    mal     DCD    543973741
        0x00002004:    746c754d    Mult    DCD    1953264973
        0x00002008:    6f726469    idro    DCD    1869767785
        0x0000200c:    704f2070    p Op    DCD    1884233840
        0x00002010:    74617265    erat    DCD    1952543333
        0x00002014:    206e6f69    ion     DCD    544108393
        0x00002018:    65646f4d    Mode    DCD    1701080909
        0x0000201c:    20202020            DCD    538976288
        0x00002020:    20202020            DCD    538976288
        0x00002024:    20202020            DCD    538976288
        0x00002028:    20202020            DCD    538976288
        0x0000202c:    20202020            DCD    538976288
        0x00002030:    20202020            DCD    538976288
        0x00002034:    00000a7c    |...    DCD    2684
        0x00002038:    6854207c    | Th    DCD    1750343804
        0x0000203c:    75662065    e fu    DCD    1969627237
        0x00002040:    6974636e    ncti    DCD    1769235310
        0x00002044:    69206e6f    on i    DCD    1763733103
        0x00002048:    73752073    s us    DCD    1937055859
        0x0000204c:    74206465    ed t    DCD    1948279909
        0x00002050:    6574206f    o te    DCD    1702109295
        0x00002054:    39207473    st 9    DCD    958428275
        0x00002058:    7469622d    -bit    DCD    1953063469
        0x0000205c:    616c7320     sla    DCD    1634497312
        0x00002060:    6d206576    ve m    DCD    1830839670
        0x00002064:    2e65646f    ode.    DCD    778396783
        0x00002068:    20202020            DCD    538976288
        0x0000206c:    20202020            DCD    538976288
        0x00002070:    20202020            DCD    538976288
        0x00002074:    00000a7c    |...    DCD    2684
        0x00002078:    6e4f207c    | On    DCD    1850679420
        0x0000207c:    4120796c    ly A    DCD    1092647276
        0x00002080:    65726464    ddre    DCD    1701995620
        0x00002084:    25207373    ss %    DCD    622883699
        0x00002088:    61207832    2x a    DCD    1629517874
        0x0000208c:    2520646e    nd %    DCD    622879854
        0x00002090:    642c7832    2x,d    DCD    1680635954
        0x00002094:    20617461    ata     DCD    543257697
        0x00002098:    206e6163    can     DCD    544104803
        0x0000209c:    65636572    rece    DCD    1701012850
        0x000020a0:    20657669    ive     DCD    543520361
        0x000020a4:    20202020            DCD    538976288
        0x000020a8:    20202020            DCD    538976288
        0x000020ac:    20202020            DCD    538976288
        0x000020b0:    20202020            DCD    538976288
        0x000020b4:    000a7c20     |..    DCD    687136
        0x000020b8:    e000e100    ....    DCD    3758153984
        0x000020bc:    64616552    Read    DCD    1684104530
        0x000020c0:    6f742079    y to    DCD    1869881465
        0x000020c4:    63657220     rec    DCD    1667592736
        0x000020c8:    63697665    evic    DCD    1667855973
        0x000020cc:    61642065    e da    DCD    1633951845
        0x000020d0:    2e2e6174    ta..    DCD    774791540
        0x000020d4:    7250282e    .(Pr    DCD    1917855790
        0x000020d8:    20737365    ess     DCD    544437093
        0x000020dc:    20796e61    any     DCD    544829025
        0x000020e0:    2079656b    key     DCD    544826731
        0x000020e4:    73206f74    to s    DCD    1931505524
        0x000020e8:    20706f74    top     DCD    544239476
        0x000020ec:    74736574    test    DCD    1953719668
        0x000020f0:    00000a29    )...    DCD    2601
        0x000020f4:    6e450a0a    ..En    DCD    1850018314
        0x000020f8:    65742064    d te    DCD    1702109284
        0x000020fc:    000a7473    st..    DCD    685171
        0x00002100:    2020207c    |       DCD    538976380
        0x00002104:    20202020            DCD    538976288
        0x00002108:    20202020            DCD    538976288
        0x0000210c:    204f4920     IO     DCD    542066976
        0x00002110:    74746553    Sett    DCD    1953785171
        0x00002114:    20676e69    ing     DCD    543649385
        0x00002118:    20202020            DCD    538976288
        0x0000211c:    20202020            DCD    538976288
        0x00002120:    20202020            DCD    538976288
        0x00002124:    20202020            DCD    538976288
        0x00002128:    20202020            DCD    538976288
        0x0000212c:    20202020            DCD    538976288
        0x00002130:    20202020            DCD    538976288
        0x00002134:    20202020            DCD    538976288
        0x00002138:    20202020            DCD    538976288
        0x0000213c:    00000a7c    |...    DCD    2684
        0x00002140:    5f20207c    |  _    DCD    1595940988
        0x00002144:    5f5f5f5f    ____    DCD    1600085855
        0x00002148:    2020205f    _       DCD    538976351
        0x0000214c:    20202020            DCD    538976288
        0x00002150:    20202020            DCD    538976288
        0x00002154:    20202020            DCD    538976288
        0x00002158:    20202020            DCD    538976288
        0x0000215c:    20202020            DCD    538976288
        0x00002160:    20202020            DCD    538976288
        0x00002164:    20202020            DCD    538976288
        0x00002168:    20202020            DCD    538976288
        0x0000216c:    5f202020       _    DCD    1595940896
        0x00002170:    5f5f5f5f    ____    DCD    1600085855
        0x00002174:    20205f5f    __      DCD    538992479
        0x00002178:    20202020            DCD    538976288
        0x0000217c:    00000a7c    |...    DCD    2684
    $t
        0x00002180:    a016        ..      ADR      r0,{pc}+0x5c ; 0x21dc
        0x00002182:    f000f9d9    ....    BL       __0printf$8 ; 0x2538
        0x00002186:    a025        %.      ADR      r0,{pc}+0x96 ; 0x221c
        0x00002188:    f000f9d6    ....    BL       __0printf$8 ; 0x2538
        0x0000218c:    a033        3.      ADR      r0,{pc}+0xd0 ; 0x225c
        0x0000218e:    f000f9d3    ....    BL       __0printf$8 ; 0x2538
        0x00002192:    a042        B.      ADR      r0,{pc}+0x10a ; 0x229c
        0x00002194:    f000f9d0    ....    BL       __0printf$8 ; 0x2538
        0x00002198:    a050        P.      ADR      r0,{pc}+0x144 ; 0x22dc
        0x0000219a:    f000f9cd    ....    BL       __0printf$8 ; 0x2538
        0x0000219e:    485f        _H      LDR      r0,[pc,#380] ; [0x231c] = 0x1f28
        0x000021a0:    f000f9ca    ....    BL       __0printf$8 ; 0x2538
        0x000021a4:    485e        ^H      LDR      r0,[pc,#376] ; [0x2320] = 0x1da8
        0x000021a6:    f000f9c7    ....    BL       __0printf$8 ; 0x2538
        0x000021aa:    a05e        ^.      ADR      r0,{pc}+0x17a ; 0x2324
        0x000021ac:    f000f9c4    ....    BL       __0printf$8 ; 0x2538
        0x000021b0:    485b        [H      LDR      r0,[pc,#364] ; [0x2320] = 0x1da8
        0x000021b2:    f000f9c1    ....    BL       __0printf$8 ; 0x2538
        0x000021b6:    a06b        k.      ADR      r0,{pc}+0x1ae ; 0x2364
        0x000021b8:    f000f9be    ....    BL       __0printf$8 ; 0x2538
        0x000021bc:    a079        y.      ADR      r0,{pc}+0x1e8 ; 0x23a4
        0x000021be:    f000f9bb    ....    BL       __0printf$8 ; 0x2538
        0x000021c2:    4856        VH      LDR      r0,[pc,#344] ; [0x231c] = 0x1f28
        0x000021c4:    f000f9b8    ....    BL       __0printf$8 ; 0x2538
        0x000021c8:    f000f919    ....    BL       GetChar ; 0x23fe
        0x000021cc:    2830        0(      CMP      r0,#0x30
        0x000021ce:    d002        ..      BEQ      0x21d6 ; RS485_FunctionTest + 1164
        0x000021d0:    f7fffd7d    ..}.    BL       RS485_9bitModeSlave ; 0x1cce
        0x000021d4:    bd10        ..      POP      {r4,pc}
        0x000021d6:    f7fffd07    ....    BL       RS485_9bitModeMaster ; 0x1be8
        0x000021da:    bd10        ..      POP      {r4,pc}
    $d
        0x000021dc:    207c207c    | |     DCD    545005692
        0x000021e0:    20202020            DCD    538976288
        0x000021e4:    20207c20     |      DCD    538999840
        0x000021e8:    20202020            DCD    538976288
        0x000021ec:    20202020            DCD    538976288
        0x000021f0:    20202020            DCD    538976288
        0x000021f4:    20202020            DCD    538976288
        0x000021f8:    20202020            DCD    538976288
        0x000021fc:    20202020            DCD    538976288
        0x00002200:    20202020            DCD    538976288
        0x00002204:    20202020            DCD    538976288
        0x00002208:    207c2020      |     DCD    545005600
        0x0000220c:    20202020            DCD    538976288
        0x00002210:    207c2020      |     DCD    545005600
        0x00002214:    20202020            DCD    538976288
        0x00002218:    00000a7c    |...    DCD    2684
        0x0000221c:    4d7c207c    | |M    DCD    1299980412
        0x00002220:    65747361    aste    DCD    1702130529
        0x00002224:    2d2d7c72    r|--    DCD    757955698
        0x00002228:    4458542d    -TXD    DCD    1146639405
        0x0000222c:    69702831    1(pi    DCD    1768958001
        0x00002230:    2936346e    n46)    DCD    691418222
        0x00002234:    3d3d3c20     <==    DCD    1027423264
        0x00002238:    203e3d3d    ==>     DCD    540949821
        0x0000223c:    31445852    RXD1    DCD    826562642
        0x00002240:    6e697028    (pin    DCD    1852403752
        0x00002244:    2d293534    45)-    DCD    757675316
        0x00002248:    537c2d2d    --|S    DCD    1400646957
        0x0000224c:    6576616c    lave    DCD    1702257004
        0x00002250:    207c2020      |     DCD    545005600
        0x00002254:    20202020            DCD    538976288
        0x00002258:    00000a7c    |...    DCD    2684
        0x0000225c:    207c207c    | |     DCD    545005692
        0x00002260:    20202020            DCD    538976288
        0x00002264:    2d2d7c20     |--    DCD    757955616
        0x00002268:    5354522d    -RTS    DCD    1398034989
        0x0000226c:    69702831    1(pi    DCD    1768958001
        0x00002270:    2939336e    n39)    DCD    691614574
        0x00002274:    3d3d3c20     <==    DCD    1027423264
        0x00002278:    203e3d3d    ==>     DCD    540949821
        0x0000227c:    31535452    RTS1    DCD    827544658
        0x00002280:    6e697028    (pin    DCD    1852403752
        0x00002284:    2d293933    39)-    DCD    757676339
        0x00002288:    207c2d2d    --|     DCD    545008941
        0x0000228c:    20202020            DCD    538976288
        0x00002290:    207c2020      |     DCD    545005600
        0x00002294:    20202020            DCD    538976288
        0x00002298:    00000a7c    |...    DCD    2684
        0x0000229c:    5f7c207c    | |_    DCD    1601970300
        0x000022a0:    5f5f5f5f    ____    DCD    1600085855
        0x000022a4:    20207c5f    _|      DCD    538999903
        0x000022a8:    20202020            DCD    538976288
        0x000022ac:    20202020            DCD    538976288
        0x000022b0:    20202020            DCD    538976288
        0x000022b4:    20202020            DCD    538976288
        0x000022b8:    20202020            DCD    538976288
        0x000022bc:    20202020            DCD    538976288
        0x000022c0:    20202020            DCD    538976288
        0x000022c4:    20202020            DCD    538976288
        0x000022c8:    5f7c2020      |_    DCD    1601970208
        0x000022cc:    5f5f5f5f    ____    DCD    1600085855
        0x000022d0:    207c5f5f    __|     DCD    545021791
        0x000022d4:    20202020            DCD    538976288
        0x000022d8:    00000a7c    |...    DCD    2684
        0x000022dc:    2020207c    |       DCD    538976380
        0x000022e0:    20202020            DCD    538976288
        0x000022e4:    20202020            DCD    538976288
        0x000022e8:    20202020            DCD    538976288
        0x000022ec:    20202020            DCD    538976288
        0x000022f0:    20202020            DCD    538976288
        0x000022f4:    20202020            DCD    538976288
        0x000022f8:    20202020            DCD    538976288
        0x000022fc:    20202020            DCD    538976288
        0x00002300:    20202020            DCD    538976288
        0x00002304:    20202020            DCD    538976288
        0x00002308:    20202020            DCD    538976288
        0x0000230c:    20202020            DCD    538976288
        0x00002310:    20202020            DCD    538976288
        0x00002314:    20202020            DCD    538976288
        0x00002318:    00000a7c    |...    DCD    2684
        0x0000231c:    00001f28    (...    DCD    7976
        0x00002320:    00001da8    ....    DCD    7592
        0x00002324:    2020207c    |       DCD    538976380
        0x00002328:    20202020            DCD    538976288
        0x0000232c:    38345352    RS48    DCD    942953298
        0x00002330:    75462035    5 Fu    DCD    1967530037
        0x00002334:    6974636e    ncti    DCD    1769235310
        0x00002338:    54206e6f    on T    DCD    1411411567
        0x0000233c:    20747365    est     DCD    544502629
        0x00002340:    20202020            DCD    538976288
        0x00002344:    20202020            DCD    538976288
        0x00002348:    20202020            DCD    538976288
        0x0000234c:    20202020            DCD    538976288
        0x00002350:    20202020            DCD    538976288
        0x00002354:    20202020            DCD    538976288
        0x00002358:    20202020            DCD    538976288
        0x0000235c:    20202020            DCD    538976288
        0x00002360:    00000a7c    |...    DCD    2684
        0x00002364:    5020207c    |  P    DCD    1344282748
        0x00002368:    7361656c    leas    DCD    1935762796
        0x0000236c:    65732065    e se    DCD    1702043749
        0x00002370:    7463656c    lect    DCD    1952671084
        0x00002374:    73614d20     Mas    DCD    1935756576
        0x00002378:    20726574    ter     DCD    544367988
        0x0000237c:    5320726f    or S    DCD    1394635375
        0x00002380:    6576616c    lave    DCD    1702257004
        0x00002384:    73657420     tes    DCD    1936028704
        0x00002388:    20202074    t       DCD    538976372
        0x0000238c:    20202020            DCD    538976288
        0x00002390:    20202020            DCD    538976288
        0x00002394:    20202020            DCD    538976288
        0x00002398:    20202020            DCD    538976288
        0x0000239c:    20202020            DCD    538976288
        0x000023a0:    00000a7c    |...    DCD    2684
        0x000023a4:    5b20207c    |  [    DCD    1528832124
        0x000023a8:    4d205d30    0] M    DCD    1293966640
        0x000023ac:    65747361    aste    DCD    1702130529
        0x000023b0:    20202072    r       DCD    538976370
        0x000023b4:    5d315b20     [1]    DCD    1563515680
        0x000023b8:    616c5320     Sla    DCD    1634489120
        0x000023bc:    20206576    ve      DCD    538994038
        0x000023c0:    20202020            DCD    538976288
        0x000023c4:    20202020            DCD    538976288
        0x000023c8:    20202020            DCD    538976288
        0x000023cc:    20202020            DCD    538976288
        0x000023d0:    20202020            DCD    538976288
        0x000023d4:    20202020            DCD    538976288
        0x000023d8:    20202020            DCD    538976288
        0x000023dc:    20202020            DCD    538976288
        0x000023e0:    00000a7c    |...    DCD    2684
    $t
    .text
    SendChar_ToUART
        0x000023e4:    490d        .I      LDR      r1,[pc,#52] ; [0x241c] = 0x40050000
        0x000023e6:    698a        .i      LDR      r2,[r1,#0x18]
        0x000023e8:    0212        ..      LSLS     r2,r2,#8
        0x000023ea:    d4fc        ..      BMI      0x23e6 ; SendChar_ToUART + 2
        0x000023ec:    6008        .`      STR      r0,[r1,#0]
        0x000023ee:    280a        .(      CMP      r0,#0xa
        0x000023f0:    d104        ..      BNE      0x23fc ; SendChar_ToUART + 24
        0x000023f2:    6988        .i      LDR      r0,[r1,#0x18]
        0x000023f4:    0200        ..      LSLS     r0,r0,#8
        0x000023f6:    d4fc        ..      BMI      0x23f2 ; SendChar_ToUART + 14
        0x000023f8:    200d        .       MOVS     r0,#0xd
        0x000023fa:    6008        .`      STR      r0,[r1,#0]
        0x000023fc:    4770        pG      BX       lr
    GetChar
        0x000023fe:    4807        .H      LDR      r0,[pc,#28] ; [0x241c] = 0x40050000
        0x00002400:    6981        .i      LDR      r1,[r0,#0x18]
        0x00002402:    0449        I.      LSLS     r1,r1,#17
        0x00002404:    d4fc        ..      BMI      0x2400 ; GetChar + 2
        0x00002406:    6800        .h      LDR      r0,[r0,#0]
        0x00002408:    b2c0        ..      UXTB     r0,r0
        0x0000240a:    4770        pG      BX       lr
    fputc
        0x0000240c:    b500        ..      PUSH     {lr}
        0x0000240e:    4603        .F      MOV      r3,r0
        0x00002410:    f7ffffe8    ....    BL       SendChar_ToUART ; 0x23e4
        0x00002414:    4618        .F      MOV      r0,r3
        0x00002416:    bd00        ..      POP      {pc}
    fgetc
        0x00002418:    e7f1        ..      B        GetChar ; 0x23fe
    $d
        0x0000241a:    0000        ..      DCW    0
        0x0000241c:    40050000    ...@    DCD    1074069504
    $t
    .text
    __aeabi_memcpy
    __aeabi_memcpy4
    __aeabi_memcpy8
        0x00002420:    4603        .F      MOV      r3,r0
        0x00002422:    430b        .C      ORRS     r3,r3,r1
        0x00002424:    079b        ..      LSLS     r3,r3,#30
        0x00002426:    d003        ..      BEQ      0x2430 ; __aeabi_memcpy + 16
        0x00002428:    e009        ..      B        0x243e ; __aeabi_memcpy + 30
        0x0000242a:    c908        ..      LDM      r1!,{r3}
        0x0000242c:    1f12        ..      SUBS     r2,r2,#4
        0x0000242e:    c008        ..      STM      r0!,{r3}
        0x00002430:    2a04        .*      CMP      r2,#4
        0x00002432:    d2fa        ..      BCS      0x242a ; __aeabi_memcpy + 10
        0x00002434:    e003        ..      B        0x243e ; __aeabi_memcpy + 30
        0x00002436:    780b        .x      LDRB     r3,[r1,#0]
        0x00002438:    1c49        I.      ADDS     r1,r1,#1
        0x0000243a:    7003        .p      STRB     r3,[r0,#0]
        0x0000243c:    1c40        @.      ADDS     r0,r0,#1
        0x0000243e:    1e52        R.      SUBS     r2,r2,#1
        0x00002440:    d2f9        ..      BCS      0x2436 ; __aeabi_memcpy + 22
        0x00002442:    4770        pG      BX       lr
    .text
    __aeabi_uldivmod
        0x00002444:    b5f0        ..      PUSH     {r4-r7,lr}
        0x00002446:    b41f        ..      PUSH     {r0-r4}
        0x00002448:    4606        .F      MOV      r6,r0
        0x0000244a:    2000        .       MOVS     r0,#0
        0x0000244c:    b082        ..      SUB      sp,sp,#8
        0x0000244e:    4605        .F      MOV      r5,r0
        0x00002450:    2440        @$      MOVS     r4,#0x40
        0x00002452:    9101        ..      STR      r1,[sp,#4]
        0x00002454:    9000        ..      STR      r0,[sp,#0]
        0x00002456:    e01b        ..      B        0x2490 ; __aeabi_uldivmod + 76
        0x00002458:    9901        ..      LDR      r1,[sp,#4]
        0x0000245a:    4622        "F      MOV      r2,r4
        0x0000245c:    460f        .F      MOV      r7,r1
        0x0000245e:    4630        0F      MOV      r0,r6
        0x00002460:    f000f842    ..B.    BL       __aeabi_llsr ; 0x24e8
        0x00002464:    9a04        ..      LDR      r2,[sp,#0x10]
        0x00002466:    9b05        ..      LDR      r3,[sp,#0x14]
        0x00002468:    1a80        ..      SUBS     r0,r0,r2
        0x0000246a:    4199        .A      SBCS     r1,r1,r3
        0x0000246c:    d310        ..      BCC      0x2490 ; __aeabi_uldivmod + 76
        0x0000246e:    4610        .F      MOV      r0,r2
        0x00002470:    4619        .F      MOV      r1,r3
        0x00002472:    4622        "F      MOV      r2,r4
        0x00002474:    f000f828    ..(.    BL       __aeabi_llsl ; 0x24c8
        0x00002478:    1a36        6.      SUBS     r6,r6,r0
        0x0000247a:    418f        .A      SBCS     r7,r7,r1
        0x0000247c:    9701        ..      STR      r7,[sp,#4]
        0x0000247e:    4622        "F      MOV      r2,r4
        0x00002480:    2001        .       MOVS     r0,#1
        0x00002482:    2100        .!      MOVS     r1,#0
        0x00002484:    9f00        ..      LDR      r7,[sp,#0]
        0x00002486:    f000f81f    ....    BL       __aeabi_llsl ; 0x24c8
        0x0000248a:    1838        8.      ADDS     r0,r7,r0
        0x0000248c:    414d        MA      ADCS     r5,r5,r1
        0x0000248e:    9000        ..      STR      r0,[sp,#0]
        0x00002490:    4620         F      MOV      r0,r4
        0x00002492:    1e64        d.      SUBS     r4,r4,#1
        0x00002494:    2800        .(      CMP      r0,#0
        0x00002496:    dcdf        ..      BGT      0x2458 ; __aeabi_uldivmod + 20
        0x00002498:    9b01        ..      LDR      r3,[sp,#4]
        0x0000249a:    9800        ..      LDR      r0,[sp,#0]
        0x0000249c:    4629        )F      MOV      r1,r5
        0x0000249e:    4632        2F      MOV      r2,r6
        0x000024a0:    b007        ..      ADD      sp,sp,#0x1c
        0x000024a2:    bdf0        ..      POP      {r4-r7,pc}
    .text
    __scatterload
    __scatterload_rt2
        0x000024a4:    4c06        .L      LDR      r4,[pc,#24] ; [0x24c0] = 0x2a34
        0x000024a6:    2501        .%      MOVS     r5,#1
        0x000024a8:    4e06        .N      LDR      r6,[pc,#24] ; [0x24c4] = 0x2a54
        0x000024aa:    e005        ..      B        0x24b8 ; __scatterload + 20
        0x000024ac:    4620         F      MOV      r0,r4
        0x000024ae:    68e3        .h      LDR      r3,[r4,#0xc]
        0x000024b0:    c807        ..      LDM      r0,{r0-r2}
        0x000024b2:    432b        +C      ORRS     r3,r3,r5
        0x000024b4:    4798        .G      BLX      r3
        0x000024b6:    3410        .4      ADDS     r4,r4,#0x10
        0x000024b8:    42b4        .B      CMP      r4,r6
        0x000024ba:    d3f7        ..      BCC      0x24ac ; __scatterload + 8
        0x000024bc:    f7fdfe04    ....    BL       __main_after_scatterload ; 0xc8
    $d
        0x000024c0:    00002a34    4*..    DCD    10804
        0x000024c4:    00002a54    T*..    DCD    10836
    $t
    .text
    __aeabi_llsl
    _ll_shift_l
        0x000024c8:    b510        ..      PUSH     {r4,lr}
        0x000024ca:    2a20         *      CMP      r2,#0x20
        0x000024cc:    db04        ..      BLT      0x24d8 ; __aeabi_llsl + 16
        0x000024ce:    4601        .F      MOV      r1,r0
        0x000024d0:    3a20         :      SUBS     r2,r2,#0x20
        0x000024d2:    4091        .@      LSLS     r1,r1,r2
        0x000024d4:    2000        .       MOVS     r0,#0
        0x000024d6:    bd10        ..      POP      {r4,pc}
        0x000024d8:    4091        .@      LSLS     r1,r1,r2
        0x000024da:    2320         #      MOVS     r3,#0x20
        0x000024dc:    1a9c        ..      SUBS     r4,r3,r2
        0x000024de:    4603        .F      MOV      r3,r0
        0x000024e0:    40e3        .@      LSRS     r3,r3,r4
        0x000024e2:    4319        .C      ORRS     r1,r1,r3
        0x000024e4:    4090        .@      LSLS     r0,r0,r2
        0x000024e6:    bd10        ..      POP      {r4,pc}
    .text
    __aeabi_llsr
    _ll_ushift_r
        0x000024e8:    b510        ..      PUSH     {r4,lr}
        0x000024ea:    2a20         *      CMP      r2,#0x20
        0x000024ec:    db04        ..      BLT      0x24f8 ; __aeabi_llsr + 16
        0x000024ee:    4608        .F      MOV      r0,r1
        0x000024f0:    3a20         :      SUBS     r2,r2,#0x20
        0x000024f2:    40d0        .@      LSRS     r0,r0,r2
        0x000024f4:    2100        .!      MOVS     r1,#0
        0x000024f6:    bd10        ..      POP      {r4,pc}
        0x000024f8:    460b        .F      MOV      r3,r1
        0x000024fa:    40d3        .@      LSRS     r3,r3,r2
        0x000024fc:    40d0        .@      LSRS     r0,r0,r2
        0x000024fe:    2420         $      MOVS     r4,#0x20
        0x00002500:    1aa2        ..      SUBS     r2,r4,r2
        0x00002502:    4091        .@      LSLS     r1,r1,r2
        0x00002504:    4308        .C      ORRS     r0,r0,r1
        0x00002506:    4619        .F      MOV      r1,r3
        0x00002508:    bd10        ..      POP      {r4,pc}
    i.UART_Write
    UART_Write
        0x0000250a:    b570        p.      PUSH     {r4-r6,lr}
        0x0000250c:    2400        .$      MOVS     r4,#0
        0x0000250e:    2501        .%      MOVS     r5,#1
        0x00002510:    07ad        ..      LSLS     r5,r5,#30
        0x00002512:    e00c        ..      B        0x252e ; UART_Write + 36
        0x00002514:    2300        .#      MOVS     r3,#0
        0x00002516:    e004        ..      B        0x2522 ; UART_Write + 24
        0x00002518:    1c5b        [.      ADDS     r3,r3,#1
        0x0000251a:    42ab        .B      CMP      r3,r5
        0x0000251c:    d301        ..      BCC      0x2522 ; UART_Write + 24
        0x0000251e:    2000        .       MOVS     r0,#0
        0x00002520:    bd70        p.      POP      {r4-r6,pc}
        0x00002522:    6986        .i      LDR      r6,[r0,#0x18]
        0x00002524:    00f6        ..      LSLS     r6,r6,#3
        0x00002526:    d5f7        ..      BPL      0x2518 ; UART_Write + 14
        0x00002528:    5d0b        .]      LDRB     r3,[r1,r4]
        0x0000252a:    6003        .`      STR      r3,[r0,#0]
        0x0000252c:    1c64        d.      ADDS     r4,r4,#1
        0x0000252e:    4294        .B      CMP      r4,r2
        0x00002530:    d1f0        ..      BNE      0x2514 ; UART_Write + 10
        0x00002532:    2001        .       MOVS     r0,#1
        0x00002534:    bd70        p.      POP      {r4-r6,pc}
        0x00002536:    0000        ..      MOVS     r0,r0
    i.__0printf$8
    __0printf$8
    __1printf$8
    __2printf
        0x00002538:    b40f        ..      PUSH     {r0-r3}
        0x0000253a:    b510        ..      PUSH     {r4,lr}
        0x0000253c:    a903        ..      ADD      r1,sp,#0xc
        0x0000253e:    4b04        .K      LDR      r3,[pc,#16] ; [0x2550] = 0x240d
        0x00002540:    4a04        .J      LDR      r2,[pc,#16] ; [0x2554] = 0x20000034
        0x00002542:    9802        ..      LDR      r0,[sp,#8]
        0x00002544:    f000f824    ..$.    BL       _printf_core ; 0x2590
        0x00002548:    bc10        ..      POP      {r4}
        0x0000254a:    bc08        ..      POP      {r3}
        0x0000254c:    b004        ..      ADD      sp,sp,#0x10
        0x0000254e:    4718        .G      BX       r3
    $d
        0x00002550:    0000240d    .$..    DCD    9229
        0x00002554:    20000034    4..     DCD    536870964
    $t
    i.__ARM_common_switch8
    __ARM_common_switch8
        0x00002558:    b430        0.      PUSH     {r4,r5}
        0x0000255a:    4674        tF      MOV      r4,lr
        0x0000255c:    1e64        d.      SUBS     r4,r4,#1
        0x0000255e:    7825        %x      LDRB     r5,[r4,#0]
        0x00002560:    1c64        d.      ADDS     r4,r4,#1
        0x00002562:    42ab        .B      CMP      r3,r5
        0x00002564:    d200        ..      BCS      0x2568 ; __ARM_common_switch8 + 16
        0x00002566:    461d        .F      MOV      r5,r3
        0x00002568:    5d63        c]      LDRB     r3,[r4,r5]
        0x0000256a:    005b        [.      LSLS     r3,r3,#1
        0x0000256c:    18e3        ..      ADDS     r3,r4,r3
        0x0000256e:    bc30        0.      POP      {r4,r5}
        0x00002570:    4718        .G      BX       r3
    i.__scatterload_copy
    __scatterload_copy
        0x00002572:    e002        ..      B        0x257a ; __scatterload_copy + 8
        0x00002574:    c808        ..      LDM      r0!,{r3}
        0x00002576:    1f12        ..      SUBS     r2,r2,#4
        0x00002578:    c108        ..      STM      r1!,{r3}
        0x0000257a:    2a00        .*      CMP      r2,#0
        0x0000257c:    d1fa        ..      BNE      0x2574 ; __scatterload_copy + 2
        0x0000257e:    4770        pG      BX       lr
    i.__scatterload_null
    __scatterload_null
        0x00002580:    4770        pG      BX       lr
    i.__scatterload_zeroinit
    __scatterload_zeroinit
        0x00002582:    2000        .       MOVS     r0,#0
        0x00002584:    e001        ..      B        0x258a ; __scatterload_zeroinit + 8
        0x00002586:    c101        ..      STM      r1!,{r0}
        0x00002588:    1f12        ..      SUBS     r2,r2,#4
        0x0000258a:    2a00        .*      CMP      r2,#0
        0x0000258c:    d1fb        ..      BNE      0x2586 ; __scatterload_zeroinit + 4
        0x0000258e:    4770        pG      BX       lr
    i._printf_core
    _printf_core
        0x00002590:    b5ff        ..      PUSH     {r0-r7,lr}
        0x00002592:    b091        ..      SUB      sp,sp,#0x44
        0x00002594:    460f        .F      MOV      r7,r1
        0x00002596:    4605        .F      MOV      r5,r0
        0x00002598:    2600        .&      MOVS     r6,#0
        0x0000259a:    e0f9        ..      B        0x2790 ; _printf_core + 512
        0x0000259c:    2825        %(      CMP      r0,#0x25
        0x0000259e:    d176        v.      BNE      0x268e ; _printf_core + 254
        0x000025a0:    2400        .$      MOVS     r4,#0
        0x000025a2:    1c6d        m.      ADDS     r5,r5,#1
        0x000025a4:    4afb        .J      LDR      r2,[pc,#1004] ; [0x2994] = 0x12809
        0x000025a6:    9400        ..      STR      r4,[sp,#0]
        0x000025a8:    2101        .!      MOVS     r1,#1
        0x000025aa:    9402        ..      STR      r4,[sp,#8]
        0x000025ac:    782b        +x      LDRB     r3,[r5,#0]
        0x000025ae:    4608        .F      MOV      r0,r1
        0x000025b0:    3b20         ;      SUBS     r3,r3,#0x20
        0x000025b2:    4098        .@      LSLS     r0,r0,r3
        0x000025b4:    4603        .F      MOV      r3,r0
        0x000025b6:    4213        .B      TST      r3,r2
        0x000025b8:    d002        ..      BEQ      0x25c0 ; _printf_core + 48
        0x000025ba:    4304        .C      ORRS     r4,r4,r0
        0x000025bc:    1c6d        m.      ADDS     r5,r5,#1
        0x000025be:    e7f5        ..      B        0x25ac ; _printf_core + 28
        0x000025c0:    7828        (x      LDRB     r0,[r5,#0]
        0x000025c2:    282a        *(      CMP      r0,#0x2a
        0x000025c4:    d00e        ..      BEQ      0x25e4 ; _printf_core + 84
        0x000025c6:    2102        .!      MOVS     r1,#2
        0x000025c8:    7828        (x      LDRB     r0,[r5,#0]
        0x000025ca:    4602        .F      MOV      r2,r0
        0x000025cc:    3a30        0:      SUBS     r2,r2,#0x30
        0x000025ce:    2a09        .*      CMP      r2,#9
        0x000025d0:    d815        ..      BHI      0x25fe ; _printf_core + 110
        0x000025d2:    9a00        ..      LDR      r2,[sp,#0]
        0x000025d4:    230a        .#      MOVS     r3,#0xa
        0x000025d6:    435a        ZC      MULS     r2,r3,r2
        0x000025d8:    3a30        0:      SUBS     r2,r2,#0x30
        0x000025da:    1880        ..      ADDS     r0,r0,r2
        0x000025dc:    430c        .C      ORRS     r4,r4,r1
        0x000025de:    1c6d        m.      ADDS     r5,r5,#1
        0x000025e0:    9000        ..      STR      r0,[sp,#0]
        0x000025e2:    e7f1        ..      B        0x25c8 ; _printf_core + 56
        0x000025e4:    cf01        ..      LDM      r7!,{r0}
        0x000025e6:    9000        ..      STR      r0,[sp,#0]
        0x000025e8:    2800        .(      CMP      r0,#0
        0x000025ea:    da05        ..      BGE      0x25f8 ; _printf_core + 104
        0x000025ec:    2001        .       MOVS     r0,#1
        0x000025ee:    0340        @.      LSLS     r0,r0,#13
        0x000025f0:    4304        .C      ORRS     r4,r4,r0
        0x000025f2:    9800        ..      LDR      r0,[sp,#0]
        0x000025f4:    4240        @B      RSBS     r0,r0,#0
        0x000025f6:    9000        ..      STR      r0,[sp,#0]
        0x000025f8:    2002        .       MOVS     r0,#2
        0x000025fa:    4304        .C      ORRS     r4,r4,r0
        0x000025fc:    1c6d        m.      ADDS     r5,r5,#1
        0x000025fe:    7828        (x      LDRB     r0,[r5,#0]
        0x00002600:    282e        .(      CMP      r0,#0x2e
        0x00002602:    d115        ..      BNE      0x2630 ; _printf_core + 160
        0x00002604:    2004        .       MOVS     r0,#4
        0x00002606:    4304        .C      ORRS     r4,r4,r0
        0x00002608:    1c6d        m.      ADDS     r5,r5,#1
        0x0000260a:    7828        (x      LDRB     r0,[r5,#0]
        0x0000260c:    282a        *(      CMP      r0,#0x2a
        0x0000260e:    d10a        ..      BNE      0x2626 ; _printf_core + 150
        0x00002610:    cf01        ..      LDM      r7!,{r0}
        0x00002612:    1c6d        m.      ADDS     r5,r5,#1
        0x00002614:    9002        ..      STR      r0,[sp,#8]
        0x00002616:    e00b        ..      B        0x2630 ; _printf_core + 160
        0x00002618:    9902        ..      LDR      r1,[sp,#8]
        0x0000261a:    220a        ."      MOVS     r2,#0xa
        0x0000261c:    4351        QC      MULS     r1,r2,r1
        0x0000261e:    3930        09      SUBS     r1,r1,#0x30
        0x00002620:    1840        @.      ADDS     r0,r0,r1
        0x00002622:    1c6d        m.      ADDS     r5,r5,#1
        0x00002624:    9002        ..      STR      r0,[sp,#8]
        0x00002626:    7828        (x      LDRB     r0,[r5,#0]
        0x00002628:    4601        .F      MOV      r1,r0
        0x0000262a:    3930        09      SUBS     r1,r1,#0x30
        0x0000262c:    2909        .)      CMP      r1,#9
        0x0000262e:    d9f3        ..      BLS      0x2618 ; _printf_core + 136
        0x00002630:    7828        (x      LDRB     r0,[r5,#0]
        0x00002632:    286c        l(      CMP      r0,#0x6c
        0x00002634:    d010        ..      BEQ      0x2658 ; _printf_core + 200
        0x00002636:    dc06        ..      BGT      0x2646 ; _printf_core + 182
        0x00002638:    284c        L(      CMP      r0,#0x4c
        0x0000263a:    d01a        ..      BEQ      0x2672 ; _printf_core + 226
        0x0000263c:    2868        h(      CMP      r0,#0x68
        0x0000263e:    d00e        ..      BEQ      0x265e ; _printf_core + 206
        0x00002640:    286a        j(      CMP      r0,#0x6a
        0x00002642:    d117        ..      BNE      0x2674 ; _printf_core + 228
        0x00002644:    e004        ..      B        0x2650 ; _printf_core + 192
        0x00002646:    2874        t(      CMP      r0,#0x74
        0x00002648:    d013        ..      BEQ      0x2672 ; _printf_core + 226
        0x0000264a:    287a        z(      CMP      r0,#0x7a
        0x0000264c:    d112        ..      BNE      0x2674 ; _printf_core + 228
        0x0000264e:    e010        ..      B        0x2672 ; _printf_core + 226
        0x00002650:    2001        .       MOVS     r0,#1
        0x00002652:    0540        @.      LSLS     r0,r0,#21
        0x00002654:    4304        .C      ORRS     r4,r4,r0
        0x00002656:    e00c        ..      B        0x2672 ; _printf_core + 226
        0x00002658:    2101        .!      MOVS     r1,#1
        0x0000265a:    0509        ..      LSLS     r1,r1,#20
        0x0000265c:    e001        ..      B        0x2662 ; _printf_core + 210
        0x0000265e:    2103        .!      MOVS     r1,#3
        0x00002660:    0509        ..      LSLS     r1,r1,#20
        0x00002662:    430c        .C      ORRS     r4,r4,r1
        0x00002664:    7869        ix      LDRB     r1,[r5,#1]
        0x00002666:    4281        .B      CMP      r1,r0
        0x00002668:    d103        ..      BNE      0x2672 ; _printf_core + 226
        0x0000266a:    2001        .       MOVS     r0,#1
        0x0000266c:    1c6d        m.      ADDS     r5,r5,#1
        0x0000266e:    0500        ..      LSLS     r0,r0,#20
        0x00002670:    1824        $.      ADDS     r4,r4,r0
        0x00002672:    1c6d        m.      ADDS     r5,r5,#1
        0x00002674:    7828        (x      LDRB     r0,[r5,#0]
        0x00002676:    9003        ..      STR      r0,[sp,#0xc]
        0x00002678:    286e        n(      CMP      r0,#0x6e
        0x0000267a:    d01f        ..      BEQ      0x26bc ; _printf_core + 300
        0x0000267c:    dc0d        ..      BGT      0x269a ; _printf_core + 266
        0x0000267e:    2863        c(      CMP      r0,#0x63
        0x00002680:    d033        3.      BEQ      0x26ea ; _printf_core + 346
        0x00002682:    dc05        ..      BGT      0x2690 ; _printf_core + 256
        0x00002684:    2800        .(      CMP      r0,#0
        0x00002686:    d07d        }.      BEQ      0x2784 ; _printf_core + 500
        0x00002688:    2858        X(      CMP      r0,#0x58
        0x0000268a:    d112        ..      BNE      0x26b2 ; _printf_core + 290
        0x0000268c:    e0be        ..      B        0x280c ; _printf_core + 636
        0x0000268e:    e010        ..      B        0x26b2 ; _printf_core + 290
        0x00002690:    2864        d(      CMP      r0,#0x64
        0x00002692:    d001        ..      BEQ      0x2698 ; _printf_core + 264
        0x00002694:    2869        i(      CMP      r0,#0x69
        0x00002696:    d10c        ..      BNE      0x26b2 ; _printf_core + 290
        0x00002698:    e081        ..      B        0x279e ; _printf_core + 526
        0x0000269a:    2873        s(      CMP      r0,#0x73
        0x0000269c:    d02f        /.      BEQ      0x26fe ; _printf_core + 366
        0x0000269e:    dc04        ..      BGT      0x26aa ; _printf_core + 282
        0x000026a0:    286f        o(      CMP      r0,#0x6f
        0x000026a2:    d070        p.      BEQ      0x2786 ; _printf_core + 502
        0x000026a4:    2870        p(      CMP      r0,#0x70
        0x000026a6:    d104        ..      BNE      0x26b2 ; _printf_core + 290
        0x000026a8:    e0b2        ..      B        0x2810 ; _printf_core + 640
        0x000026aa:    2875        u(      CMP      r0,#0x75
        0x000026ac:    d06c        l.      BEQ      0x2788 ; _printf_core + 504
        0x000026ae:    2878        x(      CMP      r0,#0x78
        0x000026b0:    d06b        k.      BEQ      0x278a ; _printf_core + 506
        0x000026b2:    9a14        ..      LDR      r2,[sp,#0x50]
        0x000026b4:    9913        ..      LDR      r1,[sp,#0x4c]
        0x000026b6:    4790        .G      BLX      r2
        0x000026b8:    1c76        v.      ADDS     r6,r6,#1
        0x000026ba:    e068        h.      B        0x278e ; _printf_core + 510
        0x000026bc:    0260        `.      LSLS     r0,r4,#9
        0x000026be:    0f40        @.      LSRS     r0,r0,#29
        0x000026c0:    2802        .(      CMP      r0,#2
        0x000026c2:    d007        ..      BEQ      0x26d4 ; _printf_core + 324
        0x000026c4:    2803        .(      CMP      r0,#3
        0x000026c6:    d00a        ..      BEQ      0x26de ; _printf_core + 334
        0x000026c8:    2804        .(      CMP      r0,#4
        0x000026ca:    6838        8h      LDR      r0,[r7,#0]
        0x000026cc:    d00a        ..      BEQ      0x26e4 ; _printf_core + 340
        0x000026ce:    1d3f        ?.      ADDS     r7,r7,#4
        0x000026d0:    6006        .`      STR      r6,[r0,#0]
        0x000026d2:    e05c        \.      B        0x278e ; _printf_core + 510
        0x000026d4:    cf01        ..      LDM      r7!,{r0}
        0x000026d6:    17f1        ..      ASRS     r1,r6,#31
        0x000026d8:    6006        .`      STR      r6,[r0,#0]
        0x000026da:    6041        A`      STR      r1,[r0,#4]
        0x000026dc:    e057        W.      B        0x278e ; _printf_core + 510
        0x000026de:    cf01        ..      LDM      r7!,{r0}
        0x000026e0:    8006        ..      STRH     r6,[r0,#0]
        0x000026e2:    e054        T.      B        0x278e ; _printf_core + 510
        0x000026e4:    1d3f        ?.      ADDS     r7,r7,#4
        0x000026e6:    7006        .p      STRB     r6,[r0,#0]
        0x000026e8:    e051        Q.      B        0x278e ; _printf_core + 510
        0x000026ea:    7838        8x      LDRB     r0,[r7,#0]
        0x000026ec:    4669        iF      MOV      r1,sp
        0x000026ee:    7408        .t      STRB     r0,[r1,#0x10]
        0x000026f0:    2000        .       MOVS     r0,#0
        0x000026f2:    7448        Ht      STRB     r0,[r1,#0x11]
        0x000026f4:    a804        ..      ADD      r0,sp,#0x10
        0x000026f6:    1d3f        ?.      ADDS     r7,r7,#4
        0x000026f8:    9003        ..      STR      r0,[sp,#0xc]
        0x000026fa:    2001        .       MOVS     r0,#1
        0x000026fc:    e003        ..      B        0x2706 ; _printf_core + 374
        0x000026fe:    cf01        ..      LDM      r7!,{r0}
        0x00002700:    9003        ..      STR      r0,[sp,#0xc]
        0x00002702:    2000        .       MOVS     r0,#0
        0x00002704:    43c0        .C      MVNS     r0,r0
        0x00002706:    0761        a.      LSLS     r1,r4,#29
        0x00002708:    d50f        ..      BPL      0x272a ; _printf_core + 410
        0x0000270a:    2100        .!      MOVS     r1,#0
        0x0000270c:    e001        ..      B        0x2712 ; _printf_core + 386
        0x0000270e:    9901        ..      LDR      r1,[sp,#4]
        0x00002710:    1c49        I.      ADDS     r1,r1,#1
        0x00002712:    9a02        ..      LDR      r2,[sp,#8]
        0x00002714:    9101        ..      STR      r1,[sp,#4]
        0x00002716:    4291        .B      CMP      r1,r2
        0x00002718:    da13        ..      BGE      0x2742 ; _printf_core + 434
        0x0000271a:    4281        .B      CMP      r1,r0
        0x0000271c:    dbf7        ..      BLT      0x270e ; _printf_core + 382
        0x0000271e:    9a01        ..      LDR      r2,[sp,#4]
        0x00002720:    9903        ..      LDR      r1,[sp,#0xc]
        0x00002722:    5c89        .\      LDRB     r1,[r1,r2]
        0x00002724:    2900        .)      CMP      r1,#0
        0x00002726:    d1f2        ..      BNE      0x270e ; _printf_core + 382
        0x00002728:    e00b        ..      B        0x2742 ; _printf_core + 434
        0x0000272a:    2100        .!      MOVS     r1,#0
        0x0000272c:    e001        ..      B        0x2732 ; _printf_core + 418
        0x0000272e:    9901        ..      LDR      r1,[sp,#4]
        0x00002730:    1c49        I.      ADDS     r1,r1,#1
        0x00002732:    9101        ..      STR      r1,[sp,#4]
        0x00002734:    4281        .B      CMP      r1,r0
        0x00002736:    dbfa        ..      BLT      0x272e ; _printf_core + 414
        0x00002738:    9a01        ..      LDR      r2,[sp,#4]
        0x0000273a:    9903        ..      LDR      r1,[sp,#0xc]
        0x0000273c:    5c89        .\      LDRB     r1,[r1,r2]
        0x0000273e:    2900        .)      CMP      r1,#0
        0x00002740:    d1f5        ..      BNE      0x272e ; _printf_core + 414
        0x00002742:    9901        ..      LDR      r1,[sp,#4]
        0x00002744:    9800        ..      LDR      r0,[sp,#0]
        0x00002746:    9a13        ..      LDR      r2,[sp,#0x4c]
        0x00002748:    1a40        @.      SUBS     r0,r0,r1
        0x0000274a:    9000        ..      STR      r0,[sp,#0]
        0x0000274c:    4621        !F      MOV      r1,r4
        0x0000274e:    9b14        ..      LDR      r3,[sp,#0x50]
        0x00002750:    f000f946    ..F.    BL       _printf_pre_padding ; 0x29e0
        0x00002754:    9901        ..      LDR      r1,[sp,#4]
        0x00002756:    1980        ..      ADDS     r0,r0,r6
        0x00002758:    1846        F.      ADDS     r6,r0,r1
        0x0000275a:    e007        ..      B        0x276c ; _printf_core + 476
        0x0000275c:    9803        ..      LDR      r0,[sp,#0xc]
        0x0000275e:    9903        ..      LDR      r1,[sp,#0xc]
        0x00002760:    7800        .x      LDRB     r0,[r0,#0]
        0x00002762:    1c49        I.      ADDS     r1,r1,#1
        0x00002764:    9103        ..      STR      r1,[sp,#0xc]
        0x00002766:    9a14        ..      LDR      r2,[sp,#0x50]
        0x00002768:    9913        ..      LDR      r1,[sp,#0x4c]
        0x0000276a:    4790        .G      BLX      r2
        0x0000276c:    9801        ..      LDR      r0,[sp,#4]
        0x0000276e:    1e40        @.      SUBS     r0,r0,#1
        0x00002770:    9001        ..      STR      r0,[sp,#4]
        0x00002772:    1c40        @.      ADDS     r0,r0,#1
        0x00002774:    d1f2        ..      BNE      0x275c ; _printf_core + 460
        0x00002776:    4621        !F      MOV      r1,r4
        0x00002778:    9b14        ..      LDR      r3,[sp,#0x50]
        0x0000277a:    9a13        ..      LDR      r2,[sp,#0x4c]
        0x0000277c:    9800        ..      LDR      r0,[sp,#0]
        0x0000277e:    f000f91f    ....    BL       _printf_post_padding ; 0x29c0
        0x00002782:    e003        ..      B        0x278c ; _printf_core + 508
        0x00002784:    e008        ..      B        0x2798 ; _printf_core + 520
        0x00002786:    e04c        L.      B        0x2822 ; _printf_core + 658
        0x00002788:    e03e        >.      B        0x2808 ; _printf_core + 632
        0x0000278a:    e03f        ?.      B        0x280c ; _printf_core + 636
        0x0000278c:    1986        ..      ADDS     r6,r0,r6
        0x0000278e:    1c6d        m.      ADDS     r5,r5,#1
        0x00002790:    7828        (x      LDRB     r0,[r5,#0]
        0x00002792:    2800        .(      CMP      r0,#0
        0x00002794:    d000        ..      BEQ      0x2798 ; _printf_core + 520
        0x00002796:    e701        ..      B        0x259c ; _printf_core + 12
        0x00002798:    4630        0F      MOV      r0,r6
        0x0000279a:    b015        ..      ADD      sp,sp,#0x54
        0x0000279c:    bdf0        ..      POP      {r4-r7,pc}
        0x0000279e:    200a        .       MOVS     r0,#0xa
        0x000027a0:    2100        .!      MOVS     r1,#0
        0x000027a2:    9004        ..      STR      r0,[sp,#0x10]
        0x000027a4:    9105        ..      STR      r1,[sp,#0x14]
        0x000027a6:    0260        `.      LSLS     r0,r4,#9
        0x000027a8:    0f41        A.      LSRS     r1,r0,#29
        0x000027aa:    2902        .)      CMP      r1,#2
        0x000027ac:    d005        ..      BEQ      0x27ba ; _printf_core + 554
        0x000027ae:    cf01        ..      LDM      r7!,{r0}
        0x000027b0:    17c2        ..      ASRS     r2,r0,#31
        0x000027b2:    4694        .F      MOV      r12,r2
        0x000027b4:    2903        .)      CMP      r1,#3
        0x000027b6:    d007        ..      BEQ      0x27c8 ; _printf_core + 568
        0x000027b8:    e009        ..      B        0x27ce ; _printf_core + 574
        0x000027ba:    1dff        ..      ADDS     r7,r7,#7
        0x000027bc:    08ff        ..      LSRS     r7,r7,#3
        0x000027be:    00ff        ..      LSLS     r7,r7,#3
        0x000027c0:    6879        yh      LDR      r1,[r7,#4]
        0x000027c2:    6838        8h      LDR      r0,[r7,#0]
        0x000027c4:    3708        .7      ADDS     r7,r7,#8
        0x000027c6:    e006        ..      B        0x27d6 ; _printf_core + 582
        0x000027c8:    b200        ..      SXTH     r0,r0
        0x000027ca:    17c2        ..      ASRS     r2,r0,#31
        0x000027cc:    4694        .F      MOV      r12,r2
        0x000027ce:    2904        .)      CMP      r1,#4
        0x000027d0:    d102        ..      BNE      0x27d8 ; _printf_core + 584
        0x000027d2:    b240        @.      SXTB     r0,r0
        0x000027d4:    17c1        ..      ASRS     r1,r0,#31
        0x000027d6:    468c        .F      MOV      r12,r1
        0x000027d8:    2200        ."      MOVS     r2,#0
        0x000027da:    4661        aF      MOV      r1,r12
        0x000027dc:    4594        .E      CMP      r12,r2
        0x000027de:    da06        ..      BGE      0x27ee ; _printf_core + 606
        0x000027e0:    460a        .F      MOV      r2,r1
        0x000027e2:    2100        .!      MOVS     r1,#0
        0x000027e4:    4240        @B      RSBS     r0,r0,#0
        0x000027e6:    4191        .A      SBCS     r1,r1,r2
        0x000027e8:    468c        .F      MOV      r12,r1
        0x000027ea:    212d        -!      MOVS     r1,#0x2d
        0x000027ec:    e002        ..      B        0x27f4 ; _printf_core + 612
        0x000027ee:    0521        !.      LSLS     r1,r4,#20
        0x000027f0:    d504        ..      BPL      0x27fc ; _printf_core + 620
        0x000027f2:    212b        +!      MOVS     r1,#0x2b
        0x000027f4:    466a        jF      MOV      r2,sp
        0x000027f6:    7611        .v      STRB     r1,[r2,#0x18]
        0x000027f8:    2101        .!      MOVS     r1,#1
        0x000027fa:    e003        ..      B        0x2804 ; _printf_core + 628
        0x000027fc:    07e1        ..      LSLS     r1,r4,#31
        0x000027fe:    d001        ..      BEQ      0x2804 ; _printf_core + 628
        0x00002800:    2120         !      MOVS     r1,#0x20
        0x00002802:    e7f7        ..      B        0x27f4 ; _printf_core + 612
        0x00002804:    9101        ..      STR      r1,[sp,#4]
        0x00002806:    e050        P.      B        0x28aa ; _printf_core + 794
        0x00002808:    200a        .       MOVS     r0,#0xa
        0x0000280a:    e00b        ..      B        0x2824 ; _printf_core + 660
        0x0000280c:    2010        .       MOVS     r0,#0x10
        0x0000280e:    e009        ..      B        0x2824 ; _printf_core + 660
        0x00002810:    2010        .       MOVS     r0,#0x10
        0x00002812:    9004        ..      STR      r0,[sp,#0x10]
        0x00002814:    2100        .!      MOVS     r1,#0
        0x00002816:    2004        .       MOVS     r0,#4
        0x00002818:    4304        .C      ORRS     r4,r4,r0
        0x0000281a:    2008        .       MOVS     r0,#8
        0x0000281c:    9105        ..      STR      r1,[sp,#0x14]
        0x0000281e:    9002        ..      STR      r0,[sp,#8]
        0x00002820:    e003        ..      B        0x282a ; _printf_core + 666
        0x00002822:    2008        .       MOVS     r0,#8
        0x00002824:    2100        .!      MOVS     r1,#0
        0x00002826:    9105        ..      STR      r1,[sp,#0x14]
        0x00002828:    9004        ..      STR      r0,[sp,#0x10]
        0x0000282a:    0260        `.      LSLS     r0,r4,#9
        0x0000282c:    0f41        A.      LSRS     r1,r0,#29
        0x0000282e:    2902        .)      CMP      r1,#2
        0x00002830:    d005        ..      BEQ      0x283e ; _printf_core + 686
        0x00002832:    cf01        ..      LDM      r7!,{r0}
        0x00002834:    2200        ."      MOVS     r2,#0
        0x00002836:    4694        .F      MOV      r12,r2
        0x00002838:    2903        .)      CMP      r1,#3
        0x0000283a:    d008        ..      BEQ      0x284e ; _printf_core + 702
        0x0000283c:    e008        ..      B        0x2850 ; _printf_core + 704
        0x0000283e:    1dff        ..      ADDS     r7,r7,#7
        0x00002840:    08ff        ..      LSRS     r7,r7,#3
        0x00002842:    00ff        ..      LSLS     r7,r7,#3
        0x00002844:    6879        yh      LDR      r1,[r7,#4]
        0x00002846:    6838        8h      LDR      r0,[r7,#0]
        0x00002848:    3708        .7      ADDS     r7,r7,#8
        0x0000284a:    468c        .F      MOV      r12,r1
        0x0000284c:    e003        ..      B        0x2856 ; _printf_core + 710
        0x0000284e:    b280        ..      UXTH     r0,r0
        0x00002850:    2904        .)      CMP      r1,#4
        0x00002852:    d100        ..      BNE      0x2856 ; _printf_core + 710
        0x00002854:    b2c0        ..      UXTB     r0,r0
        0x00002856:    2100        .!      MOVS     r1,#0
        0x00002858:    9101        ..      STR      r1,[sp,#4]
        0x0000285a:    0721        !.      LSLS     r1,r4,#28
        0x0000285c:    d525        %.      BPL      0x28aa ; _printf_core + 794
        0x0000285e:    9903        ..      LDR      r1,[sp,#0xc]
        0x00002860:    2970        p)      CMP      r1,#0x70
        0x00002862:    d02a        *.      BEQ      0x28ba ; _printf_core + 810
        0x00002864:    9a04        ..      LDR      r2,[sp,#0x10]
        0x00002866:    2110        .!      MOVS     r1,#0x10
        0x00002868:    9b05        ..      LDR      r3,[sp,#0x14]
        0x0000286a:    404a        J@      EORS     r2,r2,r1
        0x0000286c:    431a        .C      ORRS     r2,r2,r3
        0x0000286e:    d109        ..      BNE      0x2884 ; _printf_core + 756
        0x00002870:    4661        aF      MOV      r1,r12
        0x00002872:    4301        .C      ORRS     r1,r1,r0
        0x00002874:    d006        ..      BEQ      0x2884 ; _printf_core + 756
        0x00002876:    2130        0!      MOVS     r1,#0x30
        0x00002878:    466a        jF      MOV      r2,sp
        0x0000287a:    7611        .v      STRB     r1,[r2,#0x18]
        0x0000287c:    9903        ..      LDR      r1,[sp,#0xc]
        0x0000287e:    7651        Qv      STRB     r1,[r2,#0x19]
        0x00002880:    2102        .!      MOVS     r1,#2
        0x00002882:    9101        ..      STR      r1,[sp,#4]
        0x00002884:    9a04        ..      LDR      r2,[sp,#0x10]
        0x00002886:    2108        .!      MOVS     r1,#8
        0x00002888:    9b05        ..      LDR      r3,[sp,#0x14]
        0x0000288a:    404a        J@      EORS     r2,r2,r1
        0x0000288c:    431a        .C      ORRS     r2,r2,r3
        0x0000288e:    d10c        ..      BNE      0x28aa ; _printf_core + 794
        0x00002890:    4661        aF      MOV      r1,r12
        0x00002892:    4301        .C      ORRS     r1,r1,r0
        0x00002894:    d101        ..      BNE      0x289a ; _printf_core + 778
        0x00002896:    0761        a.      LSLS     r1,r4,#29
        0x00002898:    d507        ..      BPL      0x28aa ; _printf_core + 794
        0x0000289a:    2130        0!      MOVS     r1,#0x30
        0x0000289c:    466a        jF      MOV      r2,sp
        0x0000289e:    7611        .v      STRB     r1,[r2,#0x18]
        0x000028a0:    2101        .!      MOVS     r1,#1
        0x000028a2:    9101        ..      STR      r1,[sp,#4]
        0x000028a4:    9902        ..      LDR      r1,[sp,#8]
        0x000028a6:    1e49        I.      SUBS     r1,r1,#1
        0x000028a8:    9102        ..      STR      r1,[sp,#8]
        0x000028aa:    9903        ..      LDR      r1,[sp,#0xc]
        0x000028ac:    2958        X)      CMP      r1,#0x58
        0x000028ae:    d009        ..      BEQ      0x28c4 ; _printf_core + 820
        0x000028b0:    a139        9.      ADR      r1,{pc}+0xe8 ; 0x2998
        0x000028b2:    9103        ..      STR      r1,[sp,#0xc]
        0x000028b4:    a90f        ..      ADD      r1,sp,#0x3c
        0x000028b6:    910f        ..      STR      r1,[sp,#0x3c]
        0x000028b8:    e012        ..      B        0x28e0 ; _printf_core + 848
        0x000028ba:    2140        @!      MOVS     r1,#0x40
        0x000028bc:    466a        jF      MOV      r2,sp
        0x000028be:    7611        .v      STRB     r1,[r2,#0x18]
        0x000028c0:    2101        .!      MOVS     r1,#1
        0x000028c2:    e7de        ..      B        0x2882 ; _printf_core + 754
        0x000028c4:    a139        9.      ADR      r1,{pc}+0xe8 ; 0x29ac
        0x000028c6:    e7f4        ..      B        0x28b2 ; _printf_core + 802
        0x000028c8:    4661        aF      MOV      r1,r12
        0x000028ca:    9b05        ..      LDR      r3,[sp,#0x14]
        0x000028cc:    9a04        ..      LDR      r2,[sp,#0x10]
        0x000028ce:    f7fffdb9    ....    BL       __aeabi_uldivmod ; 0x2444
        0x000028d2:    9b03        ..      LDR      r3,[sp,#0xc]
        0x000028d4:    468c        .F      MOV      r12,r1
        0x000028d6:    5c9b        .\      LDRB     r3,[r3,r2]
        0x000028d8:    9a0f        ..      LDR      r2,[sp,#0x3c]
        0x000028da:    1e52        R.      SUBS     r2,r2,#1
        0x000028dc:    920f        ..      STR      r2,[sp,#0x3c]
        0x000028de:    7013        .p      STRB     r3,[r2,#0]
        0x000028e0:    4661        aF      MOV      r1,r12
        0x000028e2:    4301        .C      ORRS     r1,r1,r0
        0x000028e4:    d1f0        ..      BNE      0x28c8 ; _printf_core + 824
        0x000028e6:    980f        ..      LDR      r0,[sp,#0x3c]
        0x000028e8:    a907        ..      ADD      r1,sp,#0x1c
        0x000028ea:    1a08        ..      SUBS     r0,r1,r0
        0x000028ec:    3020         0      ADDS     r0,r0,#0x20
        0x000028ee:    9003        ..      STR      r0,[sp,#0xc]
        0x000028f0:    0760        `.      LSLS     r0,r4,#29
        0x000028f2:    d504        ..      BPL      0x28fe ; _printf_core + 878
        0x000028f4:    2001        .       MOVS     r0,#1
        0x000028f6:    0400        ..      LSLS     r0,r0,#16
        0x000028f8:    4384        .C      BICS     r4,r4,r0
        0x000028fa:    9802        ..      LDR      r0,[sp,#8]
        0x000028fc:    e001        ..      B        0x2902 ; _printf_core + 882
        0x000028fe:    2001        .       MOVS     r0,#1
        0x00002900:    9002        ..      STR      r0,[sp,#8]
        0x00002902:    9903        ..      LDR      r1,[sp,#0xc]
        0x00002904:    4288        .B      CMP      r0,r1
        0x00002906:    dd01        ..      BLE      0x290c ; _printf_core + 892
        0x00002908:    1a40        @.      SUBS     r0,r0,r1
        0x0000290a:    e000        ..      B        0x290e ; _printf_core + 894
        0x0000290c:    2000        .       MOVS     r0,#0
        0x0000290e:    1841        A.      ADDS     r1,r0,r1
        0x00002910:    9002        ..      STR      r0,[sp,#8]
        0x00002912:    9801        ..      LDR      r0,[sp,#4]
        0x00002914:    1809        ..      ADDS     r1,r1,r0
        0x00002916:    9800        ..      LDR      r0,[sp,#0]
        0x00002918:    1a40        @.      SUBS     r0,r0,r1
        0x0000291a:    9000        ..      STR      r0,[sp,#0]
        0x0000291c:    03e0        ..      LSLS     r0,r4,#15
        0x0000291e:    d406        ..      BMI      0x292e ; _printf_core + 926
        0x00002920:    4621        !F      MOV      r1,r4
        0x00002922:    9b14        ..      LDR      r3,[sp,#0x50]
        0x00002924:    9a13        ..      LDR      r2,[sp,#0x4c]
        0x00002926:    9800        ..      LDR      r0,[sp,#0]
        0x00002928:    f000f85a    ..Z.    BL       _printf_pre_padding ; 0x29e0
        0x0000292c:    1986        ..      ADDS     r6,r0,r6
        0x0000292e:    2000        .       MOVS     r0,#0
        0x00002930:    e007        ..      B        0x2942 ; _printf_core + 946
        0x00002932:    a906        ..      ADD      r1,sp,#0x18
        0x00002934:    5c08        .\      LDRB     r0,[r1,r0]
        0x00002936:    9a14        ..      LDR      r2,[sp,#0x50]
        0x00002938:    9913        ..      LDR      r1,[sp,#0x4c]
        0x0000293a:    4790        .G      BLX      r2
        0x0000293c:    9804        ..      LDR      r0,[sp,#0x10]
        0x0000293e:    1c76        v.      ADDS     r6,r6,#1
        0x00002940:    1c40        @.      ADDS     r0,r0,#1
        0x00002942:    9901        ..      LDR      r1,[sp,#4]
        0x00002944:    9004        ..      STR      r0,[sp,#0x10]
        0x00002946:    4288        .B      CMP      r0,r1
        0x00002948:    dbf3        ..      BLT      0x2932 ; _printf_core + 930
        0x0000294a:    03e0        ..      LSLS     r0,r4,#15
        0x0000294c:    d50c        ..      BPL      0x2968 ; _printf_core + 984
        0x0000294e:    4621        !F      MOV      r1,r4
        0x00002950:    9b14        ..      LDR      r3,[sp,#0x50]
        0x00002952:    9a13        ..      LDR      r2,[sp,#0x4c]
        0x00002954:    9800        ..      LDR      r0,[sp,#0]
        0x00002956:    f000f843    ..C.    BL       _printf_pre_padding ; 0x29e0
        0x0000295a:    1986        ..      ADDS     r6,r0,r6
        0x0000295c:    e004        ..      B        0x2968 ; _printf_core + 984
        0x0000295e:    9a14        ..      LDR      r2,[sp,#0x50]
        0x00002960:    2030        0       MOVS     r0,#0x30
        0x00002962:    9913        ..      LDR      r1,[sp,#0x4c]
        0x00002964:    4790        .G      BLX      r2
        0x00002966:    1c76        v.      ADDS     r6,r6,#1
        0x00002968:    9902        ..      LDR      r1,[sp,#8]
        0x0000296a:    1e48        H.      SUBS     r0,r1,#1
        0x0000296c:    9002        ..      STR      r0,[sp,#8]
        0x0000296e:    2900        .)      CMP      r1,#0
        0x00002970:    dcf5        ..      BGT      0x295e ; _printf_core + 974
        0x00002972:    e008        ..      B        0x2986 ; _printf_core + 1014
        0x00002974:    980f        ..      LDR      r0,[sp,#0x3c]
        0x00002976:    990f        ..      LDR      r1,[sp,#0x3c]
        0x00002978:    7800        .x      LDRB     r0,[r0,#0]
        0x0000297a:    1c49        I.      ADDS     r1,r1,#1
        0x0000297c:    910f        ..      STR      r1,[sp,#0x3c]
        0x0000297e:    9a14        ..      LDR      r2,[sp,#0x50]
        0x00002980:    9913        ..      LDR      r1,[sp,#0x4c]
        0x00002982:    4790        .G      BLX      r2
        0x00002984:    1c76        v.      ADDS     r6,r6,#1
        0x00002986:    9903        ..      LDR      r1,[sp,#0xc]
        0x00002988:    1e48        H.      SUBS     r0,r1,#1
        0x0000298a:    9003        ..      STR      r0,[sp,#0xc]
        0x0000298c:    2900        .)      CMP      r1,#0
        0x0000298e:    dcf1        ..      BGT      0x2974 ; _printf_core + 996
        0x00002990:    e6f1        ..      B        0x2776 ; _printf_core + 486
    $d
        0x00002992:    0000        ..      DCW    0
        0x00002994:    00012809    .(..    DCD    75785
        0x00002998:    33323130    0123    DCD    858927408
        0x0000299c:    37363534    4567    DCD    926299444
        0x000029a0:    62613938    89ab    DCD    1650538808
        0x000029a4:    66656463    cdef    DCD    1717920867
        0x000029a8:    00000000    ....    DCD    0
        0x000029ac:    33323130    0123    DCD    858927408
        0x000029b0:    37363534    4567    DCD    926299444
        0x000029b4:    42413938    89AB    DCD    1111570744
        0x000029b8:    46454443    CDEF    DCD    1178944579
        0x000029bc:    00000000    ....    DCD    0
    $t
    i._printf_post_padding
    _printf_post_padding
        0x000029c0:    b5f8        ..      PUSH     {r3-r7,lr}
        0x000029c2:    4604        .F      MOV      r4,r0
        0x000029c4:    2500        .%      MOVS     r5,#0
        0x000029c6:    461e        .F      MOV      r6,r3
        0x000029c8:    4617        .F      MOV      r7,r2
        0x000029ca:    0488        ..      LSLS     r0,r1,#18
        0x000029cc:    d404        ..      BMI      0x29d8 ; _printf_post_padding + 24
        0x000029ce:    e005        ..      B        0x29dc ; _printf_post_padding + 28
        0x000029d0:    4639        9F      MOV      r1,r7
        0x000029d2:    2020                MOVS     r0,#0x20
        0x000029d4:    47b0        .G      BLX      r6
        0x000029d6:    1c6d        m.      ADDS     r5,r5,#1
        0x000029d8:    1e64        d.      SUBS     r4,r4,#1
        0x000029da:    d5f9        ..      BPL      0x29d0 ; _printf_post_padding + 16
        0x000029dc:    4628        (F      MOV      r0,r5
        0x000029de:    bdf8        ..      POP      {r3-r7,pc}
    i._printf_pre_padding
    _printf_pre_padding
        0x000029e0:    b5ff        ..      PUSH     {r0-r7,lr}
        0x000029e2:    4604        .F      MOV      r4,r0
        0x000029e4:    2500        .%      MOVS     r5,#0
        0x000029e6:    b081        ..      SUB      sp,sp,#4
        0x000029e8:    461e        .F      MOV      r6,r3
        0x000029ea:    03c8        ..      LSLS     r0,r1,#15
        0x000029ec:    d501        ..      BPL      0x29f2 ; _printf_pre_padding + 18
        0x000029ee:    2730        0'      MOVS     r7,#0x30
        0x000029f0:    e000        ..      B        0x29f4 ; _printf_pre_padding + 20
        0x000029f2:    2720         '      MOVS     r7,#0x20
        0x000029f4:    0488        ..      LSLS     r0,r1,#18
        0x000029f6:    d504        ..      BPL      0x2a02 ; _printf_pre_padding + 34
        0x000029f8:    e005        ..      B        0x2a06 ; _printf_pre_padding + 38
        0x000029fa:    4638        8F      MOV      r0,r7
        0x000029fc:    9903        ..      LDR      r1,[sp,#0xc]
        0x000029fe:    47b0        .G      BLX      r6
        0x00002a00:    1c6d        m.      ADDS     r5,r5,#1
        0x00002a02:    1e64        d.      SUBS     r4,r4,#1
        0x00002a04:    d5f9        ..      BPL      0x29fa ; _printf_pre_padding + 26
        0x00002a06:    4628        (F      MOV      r0,r5
        0x00002a08:    b005        ..      ADD      sp,sp,#0x14
        0x00002a0a:    bdf0        ..      POP      {r4-r7,pc}
    i.getc
    getc
        0x00002a0c:    b510        ..      PUSH     {r4,lr}
        0x00002a0e:    f7fffd03    ....    BL       fgetc ; 0x2418
        0x00002a12:    bd10        ..      POP      {r4,pc}
    $d.realdata
    .constdata
        0x00002a14:    00000001    ....    DCD    1
        0x00002a18:    00000002    ....    DCD    2
        0x00002a1c:    00000003    ....    DCD    3
        0x00002a20:    00000004    ....    DCD    4
        0x00002a24:    00000005    ....    DCD    5
        0x00002a28:    00000006    ....    DCD    6
        0x00002a2c:    00000007    ....    DCD    7
        0x00002a30:    00000008    ....    DCD    8
    Region$$Table$$Base
        0x00002a34:    00002a54    T*..    DCD    10836
        0x00002a38:    20000000    ...     DCD    536870912
        0x00002a3c:    0000003c    <...    DCD    60
        0x00002a40:    00002572    r%..    DCD    9586
        0x00002a44:    00002a90    .*..    DCD    10896
        0x00002a48:    2000003c    <..     DCD    536870972
        0x00002a4c:    0000080c    ....    DCD    2060
        0x00002a50:    00002582    .%..    DCD    9602
    Region$$Table$$Limit

** Section #2 'ER_RW' (SHT_PROGBITS) [SHF_ALLOC + SHF_WRITE]
    Size   : 60 bytes (alignment 4)
    Address: 0x20000000


** Section #3 'ER_ZI' (SHT_NOBITS) [SHF_ALLOC + SHF_WRITE]
    Size   : 2060 bytes (alignment 8)
    Address: 0x2000003c


** Section #4 '.debug_abbrev' (SHT_PROGBITS)
    Size   : 1476 bytes


** Section #5 '.debug_frame' (SHT_PROGBITS)
    Size   : 1592 bytes


** Section #6 '.debug_info' (SHT_PROGBITS)
    Size   : 19804 bytes


** Section #7 '.debug_line' (SHT_PROGBITS)
    Size   : 6932 bytes


** Section #8 '.debug_loc' (SHT_PROGBITS)
    Size   : 1196 bytes


** Section #9 '.debug_macinfo' (SHT_PROGBITS)
    Size   : 189632 bytes


** Section #10 '.debug_pubnames' (SHT_PROGBITS)
    Size   : 1529 bytes


** Section #11 '.symtab' (SHT_SYMTAB)
    Size   : 4720 bytes (alignment 4)
    String table #12 '.strtab'
    Last local symbol no. 136


** Section #12 '.strtab' (SHT_STRTAB)
    Size   : 3868 bytes


** Section #13 '.note' (SHT_NOTE)
    Size   : 28 bytes (alignment 4)


** Section #14 '.comment' (SHT_PROGBITS)
    Size   : 4228 bytes


** Section #15 '.shstrtab' (SHT_STRTAB)
    Size   : 156 bytes


